; Listing generated by Microsoft (R) Optimizing Compiler Version 16.00.40219.01 

	TITLE	F:\Projects\Git\YFNet\trunk\Src\include\json\json_reader.cpp
	.686P
	.XMM
	include listing.inc
	.model	flat

INCLUDELIB LIBCMT
INCLUDELIB OLDNAMES

PUBLIC	?has_denorm@_Num_base@std@@2W4float_denorm_style@2@B ; std::_Num_base::has_denorm
PUBLIC	?has_denorm_loss@_Num_base@std@@2_NB		; std::_Num_base::has_denorm_loss
PUBLIC	?has_infinity@_Num_base@std@@2_NB		; std::_Num_base::has_infinity
PUBLIC	?has_quiet_NaN@_Num_base@std@@2_NB		; std::_Num_base::has_quiet_NaN
PUBLIC	?has_signaling_NaN@_Num_base@std@@2_NB		; std::_Num_base::has_signaling_NaN
PUBLIC	?is_bounded@_Num_base@std@@2_NB			; std::_Num_base::is_bounded
PUBLIC	?is_exact@_Num_base@std@@2_NB			; std::_Num_base::is_exact
PUBLIC	?is_iec559@_Num_base@std@@2_NB			; std::_Num_base::is_iec559
PUBLIC	?is_integer@_Num_base@std@@2_NB			; std::_Num_base::is_integer
PUBLIC	?is_modulo@_Num_base@std@@2_NB			; std::_Num_base::is_modulo
PUBLIC	?is_signed@_Num_base@std@@2_NB			; std::_Num_base::is_signed
PUBLIC	?is_specialized@_Num_base@std@@2_NB		; std::_Num_base::is_specialized
PUBLIC	?tinyness_before@_Num_base@std@@2_NB		; std::_Num_base::tinyness_before
PUBLIC	?traps@_Num_base@std@@2_NB			; std::_Num_base::traps
PUBLIC	?round_style@_Num_base@std@@2W4float_round_style@2@B ; std::_Num_base::round_style
PUBLIC	?digits@_Num_base@std@@2HB			; std::_Num_base::digits
PUBLIC	?digits10@_Num_base@std@@2HB			; std::_Num_base::digits10
PUBLIC	?max_digits10@_Num_base@std@@2HB		; std::_Num_base::max_digits10
PUBLIC	?max_exponent@_Num_base@std@@2HB		; std::_Num_base::max_exponent
PUBLIC	?max_exponent10@_Num_base@std@@2HB		; std::_Num_base::max_exponent10
PUBLIC	?min_exponent@_Num_base@std@@2HB		; std::_Num_base::min_exponent
PUBLIC	?min_exponent10@_Num_base@std@@2HB		; std::_Num_base::min_exponent10
PUBLIC	?radix@_Num_base@std@@2HB			; std::_Num_base::radix
PUBLIC	?is_bounded@_Num_int_base@std@@2_NB		; std::_Num_int_base::is_bounded
PUBLIC	?is_exact@_Num_int_base@std@@2_NB		; std::_Num_int_base::is_exact
PUBLIC	?is_integer@_Num_int_base@std@@2_NB		; std::_Num_int_base::is_integer
PUBLIC	?is_modulo@_Num_int_base@std@@2_NB		; std::_Num_int_base::is_modulo
PUBLIC	?is_specialized@_Num_int_base@std@@2_NB		; std::_Num_int_base::is_specialized
PUBLIC	?radix@_Num_int_base@std@@2HB			; std::_Num_int_base::radix
PUBLIC	?has_denorm@_Num_float_base@std@@2W4float_denorm_style@2@B ; std::_Num_float_base::has_denorm
PUBLIC	?has_denorm_loss@_Num_float_base@std@@2_NB	; std::_Num_float_base::has_denorm_loss
PUBLIC	?has_infinity@_Num_float_base@std@@2_NB		; std::_Num_float_base::has_infinity
PUBLIC	?has_quiet_NaN@_Num_float_base@std@@2_NB	; std::_Num_float_base::has_quiet_NaN
PUBLIC	?has_signaling_NaN@_Num_float_base@std@@2_NB	; std::_Num_float_base::has_signaling_NaN
PUBLIC	?is_bounded@_Num_float_base@std@@2_NB		; std::_Num_float_base::is_bounded
PUBLIC	?is_exact@_Num_float_base@std@@2_NB		; std::_Num_float_base::is_exact
PUBLIC	?is_iec559@_Num_float_base@std@@2_NB		; std::_Num_float_base::is_iec559
PUBLIC	?is_integer@_Num_float_base@std@@2_NB		; std::_Num_float_base::is_integer
PUBLIC	?is_modulo@_Num_float_base@std@@2_NB		; std::_Num_float_base::is_modulo
PUBLIC	?is_signed@_Num_float_base@std@@2_NB		; std::_Num_float_base::is_signed
PUBLIC	?is_specialized@_Num_float_base@std@@2_NB	; std::_Num_float_base::is_specialized
PUBLIC	?tinyness_before@_Num_float_base@std@@2_NB	; std::_Num_float_base::tinyness_before
PUBLIC	?traps@_Num_float_base@std@@2_NB		; std::_Num_float_base::traps
PUBLIC	?round_style@_Num_float_base@std@@2W4float_round_style@2@B ; std::_Num_float_base::round_style
PUBLIC	?radix@_Num_float_base@std@@2HB			; std::_Num_float_base::radix
PUBLIC	?is_signed@?$numeric_limits@D@std@@2_NB		; std::numeric_limits<char>::is_signed
PUBLIC	?digits@?$numeric_limits@D@std@@2HB		; std::numeric_limits<char>::digits
PUBLIC	?digits10@?$numeric_limits@D@std@@2HB		; std::numeric_limits<char>::digits10
PUBLIC	?max_digits10@?$numeric_limits@D@std@@2HB	; std::numeric_limits<char>::max_digits10
PUBLIC	?is_signed@?$numeric_limits@_W@std@@2_NB	; std::numeric_limits<wchar_t>::is_signed
PUBLIC	?digits@?$numeric_limits@_W@std@@2HB		; std::numeric_limits<wchar_t>::digits
PUBLIC	?digits10@?$numeric_limits@_W@std@@2HB		; std::numeric_limits<wchar_t>::digits10
PUBLIC	?max_digits10@?$numeric_limits@_W@std@@2HB	; std::numeric_limits<wchar_t>::max_digits10
PUBLIC	?is_modulo@?$numeric_limits@_N@std@@2_NB	; std::numeric_limits<bool>::is_modulo
PUBLIC	?is_signed@?$numeric_limits@_N@std@@2_NB	; std::numeric_limits<bool>::is_signed
PUBLIC	?digits@?$numeric_limits@_N@std@@2HB		; std::numeric_limits<bool>::digits
PUBLIC	?digits10@?$numeric_limits@_N@std@@2HB		; std::numeric_limits<bool>::digits10
PUBLIC	?max_digits10@?$numeric_limits@_N@std@@2HB	; std::numeric_limits<bool>::max_digits10
PUBLIC	?is_signed@?$numeric_limits@C@std@@2_NB		; std::numeric_limits<signed char>::is_signed
PUBLIC	?digits@?$numeric_limits@C@std@@2HB		; std::numeric_limits<signed char>::digits
PUBLIC	?digits10@?$numeric_limits@C@std@@2HB		; std::numeric_limits<signed char>::digits10
PUBLIC	?max_digits10@?$numeric_limits@C@std@@2HB	; std::numeric_limits<signed char>::max_digits10
PUBLIC	?is_signed@?$numeric_limits@E@std@@2_NB		; std::numeric_limits<unsigned char>::is_signed
PUBLIC	?digits@?$numeric_limits@E@std@@2HB		; std::numeric_limits<unsigned char>::digits
PUBLIC	?digits10@?$numeric_limits@E@std@@2HB		; std::numeric_limits<unsigned char>::digits10
PUBLIC	?max_digits10@?$numeric_limits@E@std@@2HB	; std::numeric_limits<unsigned char>::max_digits10
PUBLIC	?is_signed@?$numeric_limits@F@std@@2_NB		; std::numeric_limits<short>::is_signed
PUBLIC	?digits@?$numeric_limits@F@std@@2HB		; std::numeric_limits<short>::digits
PUBLIC	?digits10@?$numeric_limits@F@std@@2HB		; std::numeric_limits<short>::digits10
PUBLIC	?max_digits10@?$numeric_limits@F@std@@2HB	; std::numeric_limits<short>::max_digits10
PUBLIC	?is_signed@?$numeric_limits@G@std@@2_NB		; std::numeric_limits<unsigned short>::is_signed
PUBLIC	?digits@?$numeric_limits@G@std@@2HB		; std::numeric_limits<unsigned short>::digits
PUBLIC	?digits10@?$numeric_limits@G@std@@2HB		; std::numeric_limits<unsigned short>::digits10
PUBLIC	?max_digits10@?$numeric_limits@G@std@@2HB	; std::numeric_limits<unsigned short>::max_digits10
PUBLIC	?is_signed@?$numeric_limits@H@std@@2_NB		; std::numeric_limits<int>::is_signed
PUBLIC	?digits@?$numeric_limits@H@std@@2HB		; std::numeric_limits<int>::digits
PUBLIC	?digits10@?$numeric_limits@H@std@@2HB		; std::numeric_limits<int>::digits10
PUBLIC	?max_digits10@?$numeric_limits@H@std@@2HB	; std::numeric_limits<int>::max_digits10
PUBLIC	?is_signed@?$numeric_limits@I@std@@2_NB		; std::numeric_limits<unsigned int>::is_signed
PUBLIC	?digits@?$numeric_limits@I@std@@2HB		; std::numeric_limits<unsigned int>::digits
PUBLIC	?digits10@?$numeric_limits@I@std@@2HB		; std::numeric_limits<unsigned int>::digits10
PUBLIC	?max_digits10@?$numeric_limits@I@std@@2HB	; std::numeric_limits<unsigned int>::max_digits10
PUBLIC	?is_signed@?$numeric_limits@J@std@@2_NB		; std::numeric_limits<long>::is_signed
PUBLIC	?digits@?$numeric_limits@J@std@@2HB		; std::numeric_limits<long>::digits
PUBLIC	?digits10@?$numeric_limits@J@std@@2HB		; std::numeric_limits<long>::digits10
PUBLIC	?max_digits10@?$numeric_limits@J@std@@2HB	; std::numeric_limits<long>::max_digits10
PUBLIC	?is_signed@?$numeric_limits@K@std@@2_NB		; std::numeric_limits<unsigned long>::is_signed
PUBLIC	?digits@?$numeric_limits@K@std@@2HB		; std::numeric_limits<unsigned long>::digits
PUBLIC	?digits10@?$numeric_limits@K@std@@2HB		; std::numeric_limits<unsigned long>::digits10
PUBLIC	?max_digits10@?$numeric_limits@K@std@@2HB	; std::numeric_limits<unsigned long>::max_digits10
PUBLIC	?is_signed@?$numeric_limits@_J@std@@2_NB	; std::numeric_limits<__int64>::is_signed
PUBLIC	?digits@?$numeric_limits@_J@std@@2HB		; std::numeric_limits<__int64>::digits
PUBLIC	?digits10@?$numeric_limits@_J@std@@2HB		; std::numeric_limits<__int64>::digits10
PUBLIC	?max_digits10@?$numeric_limits@_J@std@@2HB	; std::numeric_limits<__int64>::max_digits10
PUBLIC	?is_signed@?$numeric_limits@_K@std@@2_NB	; std::numeric_limits<unsigned __int64>::is_signed
PUBLIC	?digits@?$numeric_limits@_K@std@@2HB		; std::numeric_limits<unsigned __int64>::digits
PUBLIC	?digits10@?$numeric_limits@_K@std@@2HB		; std::numeric_limits<unsigned __int64>::digits10
PUBLIC	?max_digits10@?$numeric_limits@_K@std@@2HB	; std::numeric_limits<unsigned __int64>::max_digits10
PUBLIC	?digits@?$numeric_limits@M@std@@2HB		; std::numeric_limits<float>::digits
PUBLIC	?digits10@?$numeric_limits@M@std@@2HB		; std::numeric_limits<float>::digits10
PUBLIC	?max_digits10@?$numeric_limits@M@std@@2HB	; std::numeric_limits<float>::max_digits10
PUBLIC	?max_exponent@?$numeric_limits@M@std@@2HB	; std::numeric_limits<float>::max_exponent
PUBLIC	?max_exponent10@?$numeric_limits@M@std@@2HB	; std::numeric_limits<float>::max_exponent10
PUBLIC	?min_exponent@?$numeric_limits@M@std@@2HB	; std::numeric_limits<float>::min_exponent
PUBLIC	?min_exponent10@?$numeric_limits@M@std@@2HB	; std::numeric_limits<float>::min_exponent10
PUBLIC	?digits@?$numeric_limits@N@std@@2HB		; std::numeric_limits<double>::digits
PUBLIC	?digits10@?$numeric_limits@N@std@@2HB		; std::numeric_limits<double>::digits10
PUBLIC	?max_digits10@?$numeric_limits@N@std@@2HB	; std::numeric_limits<double>::max_digits10
PUBLIC	?max_exponent@?$numeric_limits@N@std@@2HB	; std::numeric_limits<double>::max_exponent
PUBLIC	?max_exponent10@?$numeric_limits@N@std@@2HB	; std::numeric_limits<double>::max_exponent10
PUBLIC	?min_exponent@?$numeric_limits@N@std@@2HB	; std::numeric_limits<double>::min_exponent
PUBLIC	?min_exponent10@?$numeric_limits@N@std@@2HB	; std::numeric_limits<double>::min_exponent10
PUBLIC	?digits@?$numeric_limits@O@std@@2HB		; std::numeric_limits<long double>::digits
PUBLIC	?digits10@?$numeric_limits@O@std@@2HB		; std::numeric_limits<long double>::digits10
PUBLIC	?max_digits10@?$numeric_limits@O@std@@2HB	; std::numeric_limits<long double>::max_digits10
PUBLIC	?max_exponent@?$numeric_limits@O@std@@2HB	; std::numeric_limits<long double>::max_exponent
PUBLIC	?max_exponent10@?$numeric_limits@O@std@@2HB	; std::numeric_limits<long double>::max_exponent10
PUBLIC	?min_exponent@?$numeric_limits@O@std@@2HB	; std::numeric_limits<long double>::min_exponent
PUBLIC	?min_exponent10@?$numeric_limits@O@std@@2HB	; std::numeric_limits<long double>::min_exponent10
PUBLIC	?value@?$integral_constant@_N$0A@@tr1@std@@2_NB	; std::tr1::integral_constant<bool,0>::value
PUBLIC	?value@?$integral_constant@_N$00@tr1@std@@2_NB	; std::tr1::integral_constant<bool,1>::value
PUBLIC	?value@?$integral_constant@I$0A@@tr1@std@@2IB	; std::tr1::integral_constant<unsigned int,0>::value
PUBLIC	?_Rank@?$_Arithmetic_traits@_N@std@@2HB		; std::_Arithmetic_traits<bool>::_Rank
PUBLIC	?_Rank@?$_Arithmetic_traits@D@std@@2HB		; std::_Arithmetic_traits<char>::_Rank
PUBLIC	?_Rank@?$_Arithmetic_traits@C@std@@2HB		; std::_Arithmetic_traits<signed char>::_Rank
PUBLIC	?_Rank@?$_Arithmetic_traits@E@std@@2HB		; std::_Arithmetic_traits<unsigned char>::_Rank
PUBLIC	?_Rank@?$_Arithmetic_traits@F@std@@2HB		; std::_Arithmetic_traits<short>::_Rank
PUBLIC	?_Rank@?$_Arithmetic_traits@G@std@@2HB		; std::_Arithmetic_traits<unsigned short>::_Rank
PUBLIC	?_Rank@?$_Arithmetic_traits@H@std@@2HB		; std::_Arithmetic_traits<int>::_Rank
PUBLIC	?_Rank@?$_Arithmetic_traits@I@std@@2HB		; std::_Arithmetic_traits<unsigned int>::_Rank
PUBLIC	?_Rank@?$_Arithmetic_traits@J@std@@2HB		; std::_Arithmetic_traits<long>::_Rank
PUBLIC	?_Rank@?$_Arithmetic_traits@K@std@@2HB		; std::_Arithmetic_traits<unsigned long>::_Rank
PUBLIC	?_Rank@?$_Arithmetic_traits@_J@std@@2HB		; std::_Arithmetic_traits<__int64>::_Rank
PUBLIC	?_Rank@?$_Arithmetic_traits@_K@std@@2HB		; std::_Arithmetic_traits<unsigned __int64>::_Rank
PUBLIC	?_Rank@?$_Arithmetic_traits@M@std@@2HB		; std::_Arithmetic_traits<float>::_Rank
PUBLIC	?_Rank@?$_Arithmetic_traits@N@std@@2HB		; std::_Arithmetic_traits<double>::_Rank
PUBLIC	?_Rank@?$_Arithmetic_traits@O@std@@2HB		; std::_Arithmetic_traits<long double>::_Rank
PUBLIC	?collate@?$_Locbase@H@std@@2HB			; std::_Locbase<int>::collate
PUBLIC	?ctype@?$_Locbase@H@std@@2HB			; std::_Locbase<int>::ctype
PUBLIC	?monetary@?$_Locbase@H@std@@2HB			; std::_Locbase<int>::monetary
PUBLIC	?numeric@?$_Locbase@H@std@@2HB			; std::_Locbase<int>::numeric
PUBLIC	?time@?$_Locbase@H@std@@2HB			; std::_Locbase<int>::time
PUBLIC	?messages@?$_Locbase@H@std@@2HB			; std::_Locbase<int>::messages
PUBLIC	?all@?$_Locbase@H@std@@2HB			; std::_Locbase<int>::all
PUBLIC	?none@?$_Locbase@H@std@@2HB			; std::_Locbase<int>::none
PUBLIC	?table_size@?$ctype@D@std@@2IB			; std::ctype<char>::table_size
PUBLIC	?skipws@?$_Iosb@H@std@@2W4_Fmtflags@12@B	; std::_Iosb<int>::skipws
PUBLIC	?unitbuf@?$_Iosb@H@std@@2W4_Fmtflags@12@B	; std::_Iosb<int>::unitbuf
PUBLIC	?uppercase@?$_Iosb@H@std@@2W4_Fmtflags@12@B	; std::_Iosb<int>::uppercase
PUBLIC	?showbase@?$_Iosb@H@std@@2W4_Fmtflags@12@B	; std::_Iosb<int>::showbase
PUBLIC	?showpoint@?$_Iosb@H@std@@2W4_Fmtflags@12@B	; std::_Iosb<int>::showpoint
PUBLIC	?showpos@?$_Iosb@H@std@@2W4_Fmtflags@12@B	; std::_Iosb<int>::showpos
PUBLIC	?left@?$_Iosb@H@std@@2W4_Fmtflags@12@B		; std::_Iosb<int>::left
PUBLIC	?right@?$_Iosb@H@std@@2W4_Fmtflags@12@B		; std::_Iosb<int>::right
PUBLIC	?internal@?$_Iosb@H@std@@2W4_Fmtflags@12@B	; std::_Iosb<int>::internal
PUBLIC	?dec@?$_Iosb@H@std@@2W4_Fmtflags@12@B		; std::_Iosb<int>::dec
PUBLIC	?oct@?$_Iosb@H@std@@2W4_Fmtflags@12@B		; std::_Iosb<int>::oct
PUBLIC	?hex@?$_Iosb@H@std@@2W4_Fmtflags@12@B		; std::_Iosb<int>::hex
PUBLIC	?scientific@?$_Iosb@H@std@@2W4_Fmtflags@12@B	; std::_Iosb<int>::scientific
PUBLIC	?fixed@?$_Iosb@H@std@@2W4_Fmtflags@12@B		; std::_Iosb<int>::fixed
PUBLIC	?hexfloat@?$_Iosb@H@std@@2W4_Fmtflags@12@B	; std::_Iosb<int>::hexfloat
PUBLIC	?boolalpha@?$_Iosb@H@std@@2W4_Fmtflags@12@B	; std::_Iosb<int>::boolalpha
PUBLIC	?_Stdio@?$_Iosb@H@std@@2W4_Fmtflags@12@B	; std::_Iosb<int>::_Stdio
PUBLIC	?adjustfield@?$_Iosb@H@std@@2W4_Fmtflags@12@B	; std::_Iosb<int>::adjustfield
PUBLIC	?basefield@?$_Iosb@H@std@@2W4_Fmtflags@12@B	; std::_Iosb<int>::basefield
PUBLIC	?floatfield@?$_Iosb@H@std@@2W4_Fmtflags@12@B	; std::_Iosb<int>::floatfield
PUBLIC	?goodbit@?$_Iosb@H@std@@2W4_Iostate@12@B	; std::_Iosb<int>::goodbit
PUBLIC	?eofbit@?$_Iosb@H@std@@2W4_Iostate@12@B		; std::_Iosb<int>::eofbit
PUBLIC	?failbit@?$_Iosb@H@std@@2W4_Iostate@12@B	; std::_Iosb<int>::failbit
PUBLIC	?badbit@?$_Iosb@H@std@@2W4_Iostate@12@B		; std::_Iosb<int>::badbit
PUBLIC	?_Hardfail@?$_Iosb@H@std@@2W4_Iostate@12@B	; std::_Iosb<int>::_Hardfail
PUBLIC	?in@?$_Iosb@H@std@@2W4_Openmode@12@B		; std::_Iosb<int>::in
PUBLIC	?out@?$_Iosb@H@std@@2W4_Openmode@12@B		; std::_Iosb<int>::out
PUBLIC	?ate@?$_Iosb@H@std@@2W4_Openmode@12@B		; std::_Iosb<int>::ate
PUBLIC	?app@?$_Iosb@H@std@@2W4_Openmode@12@B		; std::_Iosb<int>::app
PUBLIC	?trunc@?$_Iosb@H@std@@2W4_Openmode@12@B		; std::_Iosb<int>::trunc
PUBLIC	?_Nocreate@?$_Iosb@H@std@@2W4_Openmode@12@B	; std::_Iosb<int>::_Nocreate
PUBLIC	?_Noreplace@?$_Iosb@H@std@@2W4_Openmode@12@B	; std::_Iosb<int>::_Noreplace
PUBLIC	?binary@?$_Iosb@H@std@@2W4_Openmode@12@B	; std::_Iosb<int>::binary
PUBLIC	?beg@?$_Iosb@H@std@@2W4_Seekdir@12@B		; std::_Iosb<int>::beg
PUBLIC	?cur@?$_Iosb@H@std@@2W4_Seekdir@12@B		; std::_Iosb<int>::cur
PUBLIC	?end@?$_Iosb@H@std@@2W4_Seekdir@12@B		; std::_Iosb<int>::end
PUBLIC	?_EEM_DS@?$deque@PAVValue@Json@@V?$allocator@PAVValue@Json@@@std@@@std@@2HB ; std::deque<Json::Value *,std::allocator<Json::Value *> >::_EEM_DS
PUBLIC	?_EEM_DS@?$deque@VErrorInfo@Reader@Json@@V?$allocator@VErrorInfo@Reader@Json@@@std@@@std@@2HB ; std::deque<Json::Reader::ErrorInfo,std::allocator<Json::Reader::ErrorInfo> >::_EEM_DS
;	COMDAT ?_EEM_DS@?$deque@VErrorInfo@Reader@Json@@V?$allocator@VErrorInfo@Reader@Json@@@std@@@std@@2HB
CONST	SEGMENT
?_EEM_DS@?$deque@VErrorInfo@Reader@Json@@V?$allocator@VErrorInfo@Reader@Json@@@std@@@std@@2HB DD 01H ; std::deque<Json::Reader::ErrorInfo,std::allocator<Json::Reader::ErrorInfo> >::_EEM_DS
CONST	ENDS
;	COMDAT ?_EEM_DS@?$deque@PAVValue@Json@@V?$allocator@PAVValue@Json@@@std@@@std@@2HB
CONST	SEGMENT
?_EEM_DS@?$deque@PAVValue@Json@@V?$allocator@PAVValue@Json@@@std@@@std@@2HB DD 04H ; std::deque<Json::Value *,std::allocator<Json::Value *> >::_EEM_DS
CONST	ENDS
;	COMDAT ?end@?$_Iosb@H@std@@2W4_Seekdir@12@B
CONST	SEGMENT
?end@?$_Iosb@H@std@@2W4_Seekdir@12@B DD 02H		; std::_Iosb<int>::end
CONST	ENDS
;	COMDAT ?cur@?$_Iosb@H@std@@2W4_Seekdir@12@B
CONST	SEGMENT
?cur@?$_Iosb@H@std@@2W4_Seekdir@12@B DD 01H		; std::_Iosb<int>::cur
CONST	ENDS
;	COMDAT ?beg@?$_Iosb@H@std@@2W4_Seekdir@12@B
CONST	SEGMENT
?beg@?$_Iosb@H@std@@2W4_Seekdir@12@B DD 00H		; std::_Iosb<int>::beg
CONST	ENDS
;	COMDAT ?binary@?$_Iosb@H@std@@2W4_Openmode@12@B
CONST	SEGMENT
?binary@?$_Iosb@H@std@@2W4_Openmode@12@B DD 020H	; std::_Iosb<int>::binary
CONST	ENDS
;	COMDAT ?_Noreplace@?$_Iosb@H@std@@2W4_Openmode@12@B
CONST	SEGMENT
?_Noreplace@?$_Iosb@H@std@@2W4_Openmode@12@B DD 080H	; std::_Iosb<int>::_Noreplace
CONST	ENDS
;	COMDAT ?_Nocreate@?$_Iosb@H@std@@2W4_Openmode@12@B
CONST	SEGMENT
?_Nocreate@?$_Iosb@H@std@@2W4_Openmode@12@B DD 040H	; std::_Iosb<int>::_Nocreate
CONST	ENDS
;	COMDAT ?trunc@?$_Iosb@H@std@@2W4_Openmode@12@B
CONST	SEGMENT
?trunc@?$_Iosb@H@std@@2W4_Openmode@12@B DD 010H		; std::_Iosb<int>::trunc
CONST	ENDS
;	COMDAT ?app@?$_Iosb@H@std@@2W4_Openmode@12@B
CONST	SEGMENT
?app@?$_Iosb@H@std@@2W4_Openmode@12@B DD 08H		; std::_Iosb<int>::app
CONST	ENDS
;	COMDAT ?ate@?$_Iosb@H@std@@2W4_Openmode@12@B
CONST	SEGMENT
?ate@?$_Iosb@H@std@@2W4_Openmode@12@B DD 04H		; std::_Iosb<int>::ate
CONST	ENDS
;	COMDAT ?out@?$_Iosb@H@std@@2W4_Openmode@12@B
CONST	SEGMENT
?out@?$_Iosb@H@std@@2W4_Openmode@12@B DD 02H		; std::_Iosb<int>::out
CONST	ENDS
;	COMDAT ?in@?$_Iosb@H@std@@2W4_Openmode@12@B
CONST	SEGMENT
?in@?$_Iosb@H@std@@2W4_Openmode@12@B DD 01H		; std::_Iosb<int>::in
CONST	ENDS
;	COMDAT ?_Hardfail@?$_Iosb@H@std@@2W4_Iostate@12@B
CONST	SEGMENT
?_Hardfail@?$_Iosb@H@std@@2W4_Iostate@12@B DD 010H	; std::_Iosb<int>::_Hardfail
CONST	ENDS
;	COMDAT ?badbit@?$_Iosb@H@std@@2W4_Iostate@12@B
CONST	SEGMENT
?badbit@?$_Iosb@H@std@@2W4_Iostate@12@B DD 04H		; std::_Iosb<int>::badbit
CONST	ENDS
;	COMDAT ?failbit@?$_Iosb@H@std@@2W4_Iostate@12@B
CONST	SEGMENT
?failbit@?$_Iosb@H@std@@2W4_Iostate@12@B DD 02H		; std::_Iosb<int>::failbit
CONST	ENDS
;	COMDAT ?eofbit@?$_Iosb@H@std@@2W4_Iostate@12@B
CONST	SEGMENT
?eofbit@?$_Iosb@H@std@@2W4_Iostate@12@B DD 01H		; std::_Iosb<int>::eofbit
CONST	ENDS
;	COMDAT ?goodbit@?$_Iosb@H@std@@2W4_Iostate@12@B
CONST	SEGMENT
?goodbit@?$_Iosb@H@std@@2W4_Iostate@12@B DD 00H		; std::_Iosb<int>::goodbit
CONST	ENDS
;	COMDAT ?floatfield@?$_Iosb@H@std@@2W4_Fmtflags@12@B
CONST	SEGMENT
?floatfield@?$_Iosb@H@std@@2W4_Fmtflags@12@B DD 03000H	; std::_Iosb<int>::floatfield
CONST	ENDS
;	COMDAT ?basefield@?$_Iosb@H@std@@2W4_Fmtflags@12@B
CONST	SEGMENT
?basefield@?$_Iosb@H@std@@2W4_Fmtflags@12@B DD 0e00H	; std::_Iosb<int>::basefield
CONST	ENDS
;	COMDAT ?adjustfield@?$_Iosb@H@std@@2W4_Fmtflags@12@B
CONST	SEGMENT
?adjustfield@?$_Iosb@H@std@@2W4_Fmtflags@12@B DD 01c0H	; std::_Iosb<int>::adjustfield
CONST	ENDS
;	COMDAT ?_Stdio@?$_Iosb@H@std@@2W4_Fmtflags@12@B
CONST	SEGMENT
?_Stdio@?$_Iosb@H@std@@2W4_Fmtflags@12@B DD 08000H	; std::_Iosb<int>::_Stdio
CONST	ENDS
;	COMDAT ?boolalpha@?$_Iosb@H@std@@2W4_Fmtflags@12@B
CONST	SEGMENT
?boolalpha@?$_Iosb@H@std@@2W4_Fmtflags@12@B DD 04000H	; std::_Iosb<int>::boolalpha
CONST	ENDS
;	COMDAT ?hexfloat@?$_Iosb@H@std@@2W4_Fmtflags@12@B
CONST	SEGMENT
?hexfloat@?$_Iosb@H@std@@2W4_Fmtflags@12@B DD 03000H	; std::_Iosb<int>::hexfloat
CONST	ENDS
;	COMDAT ?fixed@?$_Iosb@H@std@@2W4_Fmtflags@12@B
CONST	SEGMENT
?fixed@?$_Iosb@H@std@@2W4_Fmtflags@12@B DD 02000H	; std::_Iosb<int>::fixed
CONST	ENDS
;	COMDAT ?scientific@?$_Iosb@H@std@@2W4_Fmtflags@12@B
CONST	SEGMENT
?scientific@?$_Iosb@H@std@@2W4_Fmtflags@12@B DD 01000H	; std::_Iosb<int>::scientific
CONST	ENDS
;	COMDAT ?hex@?$_Iosb@H@std@@2W4_Fmtflags@12@B
CONST	SEGMENT
?hex@?$_Iosb@H@std@@2W4_Fmtflags@12@B DD 0800H		; std::_Iosb<int>::hex
CONST	ENDS
;	COMDAT ?oct@?$_Iosb@H@std@@2W4_Fmtflags@12@B
CONST	SEGMENT
?oct@?$_Iosb@H@std@@2W4_Fmtflags@12@B DD 0400H		; std::_Iosb<int>::oct
CONST	ENDS
;	COMDAT ?dec@?$_Iosb@H@std@@2W4_Fmtflags@12@B
CONST	SEGMENT
?dec@?$_Iosb@H@std@@2W4_Fmtflags@12@B DD 0200H		; std::_Iosb<int>::dec
CONST	ENDS
;	COMDAT ?internal@?$_Iosb@H@std@@2W4_Fmtflags@12@B
CONST	SEGMENT
?internal@?$_Iosb@H@std@@2W4_Fmtflags@12@B DD 0100H	; std::_Iosb<int>::internal
CONST	ENDS
;	COMDAT ?right@?$_Iosb@H@std@@2W4_Fmtflags@12@B
CONST	SEGMENT
?right@?$_Iosb@H@std@@2W4_Fmtflags@12@B DD 080H		; std::_Iosb<int>::right
CONST	ENDS
;	COMDAT ?left@?$_Iosb@H@std@@2W4_Fmtflags@12@B
CONST	SEGMENT
?left@?$_Iosb@H@std@@2W4_Fmtflags@12@B DD 040H		; std::_Iosb<int>::left
CONST	ENDS
;	COMDAT ?showpos@?$_Iosb@H@std@@2W4_Fmtflags@12@B
CONST	SEGMENT
?showpos@?$_Iosb@H@std@@2W4_Fmtflags@12@B DD 020H	; std::_Iosb<int>::showpos
CONST	ENDS
;	COMDAT ?showpoint@?$_Iosb@H@std@@2W4_Fmtflags@12@B
CONST	SEGMENT
?showpoint@?$_Iosb@H@std@@2W4_Fmtflags@12@B DD 010H	; std::_Iosb<int>::showpoint
CONST	ENDS
;	COMDAT ?showbase@?$_Iosb@H@std@@2W4_Fmtflags@12@B
CONST	SEGMENT
?showbase@?$_Iosb@H@std@@2W4_Fmtflags@12@B DD 08H	; std::_Iosb<int>::showbase
CONST	ENDS
;	COMDAT ?uppercase@?$_Iosb@H@std@@2W4_Fmtflags@12@B
CONST	SEGMENT
?uppercase@?$_Iosb@H@std@@2W4_Fmtflags@12@B DD 04H	; std::_Iosb<int>::uppercase
CONST	ENDS
;	COMDAT ?unitbuf@?$_Iosb@H@std@@2W4_Fmtflags@12@B
CONST	SEGMENT
?unitbuf@?$_Iosb@H@std@@2W4_Fmtflags@12@B DD 02H	; std::_Iosb<int>::unitbuf
CONST	ENDS
;	COMDAT ?skipws@?$_Iosb@H@std@@2W4_Fmtflags@12@B
CONST	SEGMENT
?skipws@?$_Iosb@H@std@@2W4_Fmtflags@12@B DD 01H		; std::_Iosb<int>::skipws
CONST	ENDS
;	COMDAT ?table_size@?$ctype@D@std@@2IB
CONST	SEGMENT
?table_size@?$ctype@D@std@@2IB DD 0100H			; std::ctype<char>::table_size
CONST	ENDS
;	COMDAT ?none@?$_Locbase@H@std@@2HB
CONST	SEGMENT
?none@?$_Locbase@H@std@@2HB DD 00H			; std::_Locbase<int>::none
CONST	ENDS
;	COMDAT ?all@?$_Locbase@H@std@@2HB
CONST	SEGMENT
?all@?$_Locbase@H@std@@2HB DD 03fH			; std::_Locbase<int>::all
CONST	ENDS
;	COMDAT ?messages@?$_Locbase@H@std@@2HB
CONST	SEGMENT
?messages@?$_Locbase@H@std@@2HB DD 020H			; std::_Locbase<int>::messages
CONST	ENDS
;	COMDAT ?time@?$_Locbase@H@std@@2HB
CONST	SEGMENT
?time@?$_Locbase@H@std@@2HB DD 010H			; std::_Locbase<int>::time
CONST	ENDS
;	COMDAT ?numeric@?$_Locbase@H@std@@2HB
CONST	SEGMENT
?numeric@?$_Locbase@H@std@@2HB DD 08H			; std::_Locbase<int>::numeric
CONST	ENDS
;	COMDAT ?monetary@?$_Locbase@H@std@@2HB
CONST	SEGMENT
?monetary@?$_Locbase@H@std@@2HB DD 04H			; std::_Locbase<int>::monetary
CONST	ENDS
;	COMDAT ?ctype@?$_Locbase@H@std@@2HB
CONST	SEGMENT
?ctype@?$_Locbase@H@std@@2HB DD 02H			; std::_Locbase<int>::ctype
CONST	ENDS
;	COMDAT ?collate@?$_Locbase@H@std@@2HB
CONST	SEGMENT
?collate@?$_Locbase@H@std@@2HB DD 01H			; std::_Locbase<int>::collate
CONST	ENDS
;	COMDAT ?_Rank@?$_Arithmetic_traits@O@std@@2HB
CONST	SEGMENT
?_Rank@?$_Arithmetic_traits@O@std@@2HB DD 09H		; std::_Arithmetic_traits<long double>::_Rank
CONST	ENDS
;	COMDAT ?_Rank@?$_Arithmetic_traits@N@std@@2HB
CONST	SEGMENT
?_Rank@?$_Arithmetic_traits@N@std@@2HB DD 08H		; std::_Arithmetic_traits<double>::_Rank
CONST	ENDS
;	COMDAT ?_Rank@?$_Arithmetic_traits@M@std@@2HB
CONST	SEGMENT
?_Rank@?$_Arithmetic_traits@M@std@@2HB DD 07H		; std::_Arithmetic_traits<float>::_Rank
CONST	ENDS
;	COMDAT ?_Rank@?$_Arithmetic_traits@_K@std@@2HB
CONST	SEGMENT
?_Rank@?$_Arithmetic_traits@_K@std@@2HB DD 06H		; std::_Arithmetic_traits<unsigned __int64>::_Rank
CONST	ENDS
;	COMDAT ?_Rank@?$_Arithmetic_traits@_J@std@@2HB
CONST	SEGMENT
?_Rank@?$_Arithmetic_traits@_J@std@@2HB DD 06H		; std::_Arithmetic_traits<__int64>::_Rank
CONST	ENDS
;	COMDAT ?_Rank@?$_Arithmetic_traits@K@std@@2HB
CONST	SEGMENT
?_Rank@?$_Arithmetic_traits@K@std@@2HB DD 05H		; std::_Arithmetic_traits<unsigned long>::_Rank
CONST	ENDS
;	COMDAT ?_Rank@?$_Arithmetic_traits@J@std@@2HB
CONST	SEGMENT
?_Rank@?$_Arithmetic_traits@J@std@@2HB DD 05H		; std::_Arithmetic_traits<long>::_Rank
CONST	ENDS
;	COMDAT ?_Rank@?$_Arithmetic_traits@I@std@@2HB
CONST	SEGMENT
?_Rank@?$_Arithmetic_traits@I@std@@2HB DD 04H		; std::_Arithmetic_traits<unsigned int>::_Rank
CONST	ENDS
;	COMDAT ?_Rank@?$_Arithmetic_traits@H@std@@2HB
CONST	SEGMENT
?_Rank@?$_Arithmetic_traits@H@std@@2HB DD 04H		; std::_Arithmetic_traits<int>::_Rank
CONST	ENDS
;	COMDAT ?_Rank@?$_Arithmetic_traits@G@std@@2HB
CONST	SEGMENT
?_Rank@?$_Arithmetic_traits@G@std@@2HB DD 03H		; std::_Arithmetic_traits<unsigned short>::_Rank
CONST	ENDS
;	COMDAT ?_Rank@?$_Arithmetic_traits@F@std@@2HB
CONST	SEGMENT
?_Rank@?$_Arithmetic_traits@F@std@@2HB DD 03H		; std::_Arithmetic_traits<short>::_Rank
CONST	ENDS
;	COMDAT ?_Rank@?$_Arithmetic_traits@E@std@@2HB
CONST	SEGMENT
?_Rank@?$_Arithmetic_traits@E@std@@2HB DD 02H		; std::_Arithmetic_traits<unsigned char>::_Rank
CONST	ENDS
;	COMDAT ?_Rank@?$_Arithmetic_traits@C@std@@2HB
CONST	SEGMENT
?_Rank@?$_Arithmetic_traits@C@std@@2HB DD 02H		; std::_Arithmetic_traits<signed char>::_Rank
CONST	ENDS
;	COMDAT ?_Rank@?$_Arithmetic_traits@D@std@@2HB
CONST	SEGMENT
?_Rank@?$_Arithmetic_traits@D@std@@2HB DD 02H		; std::_Arithmetic_traits<char>::_Rank
CONST	ENDS
;	COMDAT ?_Rank@?$_Arithmetic_traits@_N@std@@2HB
CONST	SEGMENT
?_Rank@?$_Arithmetic_traits@_N@std@@2HB DD 01H		; std::_Arithmetic_traits<bool>::_Rank
CONST	ENDS
;	COMDAT ?value@?$integral_constant@I$0A@@tr1@std@@2IB
CONST	SEGMENT
?value@?$integral_constant@I$0A@@tr1@std@@2IB DD 00H	; std::tr1::integral_constant<unsigned int,0>::value
CONST	ENDS
;	COMDAT ?value@?$integral_constant@_N$00@tr1@std@@2_NB
CONST	SEGMENT
?value@?$integral_constant@_N$00@tr1@std@@2_NB DB 01H	; std::tr1::integral_constant<bool,1>::value
CONST	ENDS
;	COMDAT ?value@?$integral_constant@_N$0A@@tr1@std@@2_NB
CONST	SEGMENT
?value@?$integral_constant@_N$0A@@tr1@std@@2_NB DB 00H	; std::tr1::integral_constant<bool,0>::value
CONST	ENDS
;	COMDAT ?min_exponent10@?$numeric_limits@O@std@@2HB
CONST	SEGMENT
?min_exponent10@?$numeric_limits@O@std@@2HB DD 0fffffecdH ; std::numeric_limits<long double>::min_exponent10
CONST	ENDS
;	COMDAT ?min_exponent@?$numeric_limits@O@std@@2HB
CONST	SEGMENT
?min_exponent@?$numeric_limits@O@std@@2HB DD 0fffffc03H	; std::numeric_limits<long double>::min_exponent
CONST	ENDS
;	COMDAT ?max_exponent10@?$numeric_limits@O@std@@2HB
CONST	SEGMENT
?max_exponent10@?$numeric_limits@O@std@@2HB DD 0134H	; std::numeric_limits<long double>::max_exponent10
CONST	ENDS
;	COMDAT ?max_exponent@?$numeric_limits@O@std@@2HB
CONST	SEGMENT
?max_exponent@?$numeric_limits@O@std@@2HB DD 0400H	; std::numeric_limits<long double>::max_exponent
CONST	ENDS
;	COMDAT ?max_digits10@?$numeric_limits@O@std@@2HB
CONST	SEGMENT
?max_digits10@?$numeric_limits@O@std@@2HB DD 011H	; std::numeric_limits<long double>::max_digits10
CONST	ENDS
;	COMDAT ?digits10@?$numeric_limits@O@std@@2HB
CONST	SEGMENT
?digits10@?$numeric_limits@O@std@@2HB DD 0fH		; std::numeric_limits<long double>::digits10
CONST	ENDS
;	COMDAT ?digits@?$numeric_limits@O@std@@2HB
CONST	SEGMENT
?digits@?$numeric_limits@O@std@@2HB DD 035H		; std::numeric_limits<long double>::digits
CONST	ENDS
;	COMDAT ?min_exponent10@?$numeric_limits@N@std@@2HB
CONST	SEGMENT
?min_exponent10@?$numeric_limits@N@std@@2HB DD 0fffffecdH ; std::numeric_limits<double>::min_exponent10
CONST	ENDS
;	COMDAT ?min_exponent@?$numeric_limits@N@std@@2HB
CONST	SEGMENT
?min_exponent@?$numeric_limits@N@std@@2HB DD 0fffffc03H	; std::numeric_limits<double>::min_exponent
CONST	ENDS
;	COMDAT ?max_exponent10@?$numeric_limits@N@std@@2HB
CONST	SEGMENT
?max_exponent10@?$numeric_limits@N@std@@2HB DD 0134H	; std::numeric_limits<double>::max_exponent10
CONST	ENDS
;	COMDAT ?max_exponent@?$numeric_limits@N@std@@2HB
CONST	SEGMENT
?max_exponent@?$numeric_limits@N@std@@2HB DD 0400H	; std::numeric_limits<double>::max_exponent
CONST	ENDS
;	COMDAT ?max_digits10@?$numeric_limits@N@std@@2HB
CONST	SEGMENT
?max_digits10@?$numeric_limits@N@std@@2HB DD 011H	; std::numeric_limits<double>::max_digits10
CONST	ENDS
;	COMDAT ?digits10@?$numeric_limits@N@std@@2HB
CONST	SEGMENT
?digits10@?$numeric_limits@N@std@@2HB DD 0fH		; std::numeric_limits<double>::digits10
CONST	ENDS
;	COMDAT ?digits@?$numeric_limits@N@std@@2HB
CONST	SEGMENT
?digits@?$numeric_limits@N@std@@2HB DD 035H		; std::numeric_limits<double>::digits
CONST	ENDS
;	COMDAT ?min_exponent10@?$numeric_limits@M@std@@2HB
CONST	SEGMENT
?min_exponent10@?$numeric_limits@M@std@@2HB DD 0ffffffdbH ; std::numeric_limits<float>::min_exponent10
CONST	ENDS
;	COMDAT ?min_exponent@?$numeric_limits@M@std@@2HB
CONST	SEGMENT
?min_exponent@?$numeric_limits@M@std@@2HB DD 0ffffff83H	; std::numeric_limits<float>::min_exponent
CONST	ENDS
;	COMDAT ?max_exponent10@?$numeric_limits@M@std@@2HB
CONST	SEGMENT
?max_exponent10@?$numeric_limits@M@std@@2HB DD 026H	; std::numeric_limits<float>::max_exponent10
CONST	ENDS
;	COMDAT ?max_exponent@?$numeric_limits@M@std@@2HB
CONST	SEGMENT
?max_exponent@?$numeric_limits@M@std@@2HB DD 080H	; std::numeric_limits<float>::max_exponent
CONST	ENDS
;	COMDAT ?max_digits10@?$numeric_limits@M@std@@2HB
CONST	SEGMENT
?max_digits10@?$numeric_limits@M@std@@2HB DD 08H	; std::numeric_limits<float>::max_digits10
CONST	ENDS
;	COMDAT ?digits10@?$numeric_limits@M@std@@2HB
CONST	SEGMENT
?digits10@?$numeric_limits@M@std@@2HB DD 06H		; std::numeric_limits<float>::digits10
CONST	ENDS
;	COMDAT ?digits@?$numeric_limits@M@std@@2HB
CONST	SEGMENT
?digits@?$numeric_limits@M@std@@2HB DD 018H		; std::numeric_limits<float>::digits
CONST	ENDS
;	COMDAT ?max_digits10@?$numeric_limits@_K@std@@2HB
CONST	SEGMENT
?max_digits10@?$numeric_limits@_K@std@@2HB DD 015H	; std::numeric_limits<unsigned __int64>::max_digits10
CONST	ENDS
;	COMDAT ?digits10@?$numeric_limits@_K@std@@2HB
CONST	SEGMENT
?digits10@?$numeric_limits@_K@std@@2HB DD 013H		; std::numeric_limits<unsigned __int64>::digits10
CONST	ENDS
;	COMDAT ?digits@?$numeric_limits@_K@std@@2HB
CONST	SEGMENT
?digits@?$numeric_limits@_K@std@@2HB DD 040H		; std::numeric_limits<unsigned __int64>::digits
CONST	ENDS
;	COMDAT ?is_signed@?$numeric_limits@_K@std@@2_NB
CONST	SEGMENT
?is_signed@?$numeric_limits@_K@std@@2_NB DB 00H		; std::numeric_limits<unsigned __int64>::is_signed
CONST	ENDS
;	COMDAT ?max_digits10@?$numeric_limits@_J@std@@2HB
CONST	SEGMENT
?max_digits10@?$numeric_limits@_J@std@@2HB DD 014H	; std::numeric_limits<__int64>::max_digits10
CONST	ENDS
;	COMDAT ?digits10@?$numeric_limits@_J@std@@2HB
CONST	SEGMENT
?digits10@?$numeric_limits@_J@std@@2HB DD 012H		; std::numeric_limits<__int64>::digits10
CONST	ENDS
;	COMDAT ?digits@?$numeric_limits@_J@std@@2HB
CONST	SEGMENT
?digits@?$numeric_limits@_J@std@@2HB DD 03fH		; std::numeric_limits<__int64>::digits
CONST	ENDS
;	COMDAT ?is_signed@?$numeric_limits@_J@std@@2_NB
CONST	SEGMENT
?is_signed@?$numeric_limits@_J@std@@2_NB DB 01H		; std::numeric_limits<__int64>::is_signed
CONST	ENDS
;	COMDAT ?max_digits10@?$numeric_limits@K@std@@2HB
CONST	SEGMENT
?max_digits10@?$numeric_limits@K@std@@2HB DD 0bH	; std::numeric_limits<unsigned long>::max_digits10
CONST	ENDS
;	COMDAT ?digits10@?$numeric_limits@K@std@@2HB
CONST	SEGMENT
?digits10@?$numeric_limits@K@std@@2HB DD 09H		; std::numeric_limits<unsigned long>::digits10
CONST	ENDS
;	COMDAT ?digits@?$numeric_limits@K@std@@2HB
CONST	SEGMENT
?digits@?$numeric_limits@K@std@@2HB DD 020H		; std::numeric_limits<unsigned long>::digits
CONST	ENDS
;	COMDAT ?is_signed@?$numeric_limits@K@std@@2_NB
CONST	SEGMENT
?is_signed@?$numeric_limits@K@std@@2_NB DB 00H		; std::numeric_limits<unsigned long>::is_signed
CONST	ENDS
;	COMDAT ?max_digits10@?$numeric_limits@J@std@@2HB
CONST	SEGMENT
?max_digits10@?$numeric_limits@J@std@@2HB DD 0bH	; std::numeric_limits<long>::max_digits10
CONST	ENDS
;	COMDAT ?digits10@?$numeric_limits@J@std@@2HB
CONST	SEGMENT
?digits10@?$numeric_limits@J@std@@2HB DD 09H		; std::numeric_limits<long>::digits10
CONST	ENDS
;	COMDAT ?digits@?$numeric_limits@J@std@@2HB
CONST	SEGMENT
?digits@?$numeric_limits@J@std@@2HB DD 01fH		; std::numeric_limits<long>::digits
CONST	ENDS
;	COMDAT ?is_signed@?$numeric_limits@J@std@@2_NB
CONST	SEGMENT
?is_signed@?$numeric_limits@J@std@@2_NB DB 01H		; std::numeric_limits<long>::is_signed
CONST	ENDS
;	COMDAT ?max_digits10@?$numeric_limits@I@std@@2HB
CONST	SEGMENT
?max_digits10@?$numeric_limits@I@std@@2HB DD 0bH	; std::numeric_limits<unsigned int>::max_digits10
CONST	ENDS
;	COMDAT ?digits10@?$numeric_limits@I@std@@2HB
CONST	SEGMENT
?digits10@?$numeric_limits@I@std@@2HB DD 09H		; std::numeric_limits<unsigned int>::digits10
CONST	ENDS
;	COMDAT ?digits@?$numeric_limits@I@std@@2HB
CONST	SEGMENT
?digits@?$numeric_limits@I@std@@2HB DD 020H		; std::numeric_limits<unsigned int>::digits
CONST	ENDS
;	COMDAT ?is_signed@?$numeric_limits@I@std@@2_NB
CONST	SEGMENT
?is_signed@?$numeric_limits@I@std@@2_NB DB 00H		; std::numeric_limits<unsigned int>::is_signed
CONST	ENDS
;	COMDAT ?max_digits10@?$numeric_limits@H@std@@2HB
CONST	SEGMENT
?max_digits10@?$numeric_limits@H@std@@2HB DD 0bH	; std::numeric_limits<int>::max_digits10
CONST	ENDS
;	COMDAT ?digits10@?$numeric_limits@H@std@@2HB
CONST	SEGMENT
?digits10@?$numeric_limits@H@std@@2HB DD 09H		; std::numeric_limits<int>::digits10
CONST	ENDS
;	COMDAT ?digits@?$numeric_limits@H@std@@2HB
CONST	SEGMENT
?digits@?$numeric_limits@H@std@@2HB DD 01fH		; std::numeric_limits<int>::digits
CONST	ENDS
;	COMDAT ?is_signed@?$numeric_limits@H@std@@2_NB
CONST	SEGMENT
?is_signed@?$numeric_limits@H@std@@2_NB DB 01H		; std::numeric_limits<int>::is_signed
CONST	ENDS
;	COMDAT ?max_digits10@?$numeric_limits@G@std@@2HB
CONST	SEGMENT
?max_digits10@?$numeric_limits@G@std@@2HB DD 06H	; std::numeric_limits<unsigned short>::max_digits10
CONST	ENDS
;	COMDAT ?digits10@?$numeric_limits@G@std@@2HB
CONST	SEGMENT
?digits10@?$numeric_limits@G@std@@2HB DD 04H		; std::numeric_limits<unsigned short>::digits10
CONST	ENDS
;	COMDAT ?digits@?$numeric_limits@G@std@@2HB
CONST	SEGMENT
?digits@?$numeric_limits@G@std@@2HB DD 010H		; std::numeric_limits<unsigned short>::digits
CONST	ENDS
;	COMDAT ?is_signed@?$numeric_limits@G@std@@2_NB
CONST	SEGMENT
?is_signed@?$numeric_limits@G@std@@2_NB DB 00H		; std::numeric_limits<unsigned short>::is_signed
CONST	ENDS
;	COMDAT ?max_digits10@?$numeric_limits@F@std@@2HB
CONST	SEGMENT
?max_digits10@?$numeric_limits@F@std@@2HB DD 06H	; std::numeric_limits<short>::max_digits10
CONST	ENDS
;	COMDAT ?digits10@?$numeric_limits@F@std@@2HB
CONST	SEGMENT
?digits10@?$numeric_limits@F@std@@2HB DD 04H		; std::numeric_limits<short>::digits10
CONST	ENDS
;	COMDAT ?digits@?$numeric_limits@F@std@@2HB
CONST	SEGMENT
?digits@?$numeric_limits@F@std@@2HB DD 0fH		; std::numeric_limits<short>::digits
CONST	ENDS
;	COMDAT ?is_signed@?$numeric_limits@F@std@@2_NB
CONST	SEGMENT
?is_signed@?$numeric_limits@F@std@@2_NB DB 01H		; std::numeric_limits<short>::is_signed
CONST	ENDS
;	COMDAT ?max_digits10@?$numeric_limits@E@std@@2HB
CONST	SEGMENT
?max_digits10@?$numeric_limits@E@std@@2HB DD 04H	; std::numeric_limits<unsigned char>::max_digits10
CONST	ENDS
;	COMDAT ?digits10@?$numeric_limits@E@std@@2HB
CONST	SEGMENT
?digits10@?$numeric_limits@E@std@@2HB DD 02H		; std::numeric_limits<unsigned char>::digits10
CONST	ENDS
;	COMDAT ?digits@?$numeric_limits@E@std@@2HB
CONST	SEGMENT
?digits@?$numeric_limits@E@std@@2HB DD 08H		; std::numeric_limits<unsigned char>::digits
CONST	ENDS
;	COMDAT ?is_signed@?$numeric_limits@E@std@@2_NB
CONST	SEGMENT
?is_signed@?$numeric_limits@E@std@@2_NB DB 00H		; std::numeric_limits<unsigned char>::is_signed
CONST	ENDS
;	COMDAT ?max_digits10@?$numeric_limits@C@std@@2HB
CONST	SEGMENT
?max_digits10@?$numeric_limits@C@std@@2HB DD 04H	; std::numeric_limits<signed char>::max_digits10
CONST	ENDS
;	COMDAT ?digits10@?$numeric_limits@C@std@@2HB
CONST	SEGMENT
?digits10@?$numeric_limits@C@std@@2HB DD 02H		; std::numeric_limits<signed char>::digits10
CONST	ENDS
;	COMDAT ?digits@?$numeric_limits@C@std@@2HB
CONST	SEGMENT
?digits@?$numeric_limits@C@std@@2HB DD 07H		; std::numeric_limits<signed char>::digits
CONST	ENDS
;	COMDAT ?is_signed@?$numeric_limits@C@std@@2_NB
CONST	SEGMENT
?is_signed@?$numeric_limits@C@std@@2_NB DB 01H		; std::numeric_limits<signed char>::is_signed
CONST	ENDS
;	COMDAT ?max_digits10@?$numeric_limits@_N@std@@2HB
CONST	SEGMENT
?max_digits10@?$numeric_limits@_N@std@@2HB DD 00H	; std::numeric_limits<bool>::max_digits10
CONST	ENDS
;	COMDAT ?digits10@?$numeric_limits@_N@std@@2HB
CONST	SEGMENT
?digits10@?$numeric_limits@_N@std@@2HB DD 00H		; std::numeric_limits<bool>::digits10
CONST	ENDS
;	COMDAT ?digits@?$numeric_limits@_N@std@@2HB
CONST	SEGMENT
?digits@?$numeric_limits@_N@std@@2HB DD 01H		; std::numeric_limits<bool>::digits
CONST	ENDS
;	COMDAT ?is_signed@?$numeric_limits@_N@std@@2_NB
CONST	SEGMENT
?is_signed@?$numeric_limits@_N@std@@2_NB DB 00H		; std::numeric_limits<bool>::is_signed
CONST	ENDS
;	COMDAT ?is_modulo@?$numeric_limits@_N@std@@2_NB
CONST	SEGMENT
?is_modulo@?$numeric_limits@_N@std@@2_NB DB 00H		; std::numeric_limits<bool>::is_modulo
CONST	ENDS
;	COMDAT ?max_digits10@?$numeric_limits@_W@std@@2HB
CONST	SEGMENT
?max_digits10@?$numeric_limits@_W@std@@2HB DD 06H	; std::numeric_limits<wchar_t>::max_digits10
CONST	ENDS
;	COMDAT ?digits10@?$numeric_limits@_W@std@@2HB
CONST	SEGMENT
?digits10@?$numeric_limits@_W@std@@2HB DD 04H		; std::numeric_limits<wchar_t>::digits10
CONST	ENDS
;	COMDAT ?digits@?$numeric_limits@_W@std@@2HB
CONST	SEGMENT
?digits@?$numeric_limits@_W@std@@2HB DD 010H		; std::numeric_limits<wchar_t>::digits
CONST	ENDS
;	COMDAT ?is_signed@?$numeric_limits@_W@std@@2_NB
CONST	SEGMENT
?is_signed@?$numeric_limits@_W@std@@2_NB DB 00H		; std::numeric_limits<wchar_t>::is_signed
CONST	ENDS
;	COMDAT ?max_digits10@?$numeric_limits@D@std@@2HB
CONST	SEGMENT
?max_digits10@?$numeric_limits@D@std@@2HB DD 04H	; std::numeric_limits<char>::max_digits10
CONST	ENDS
;	COMDAT ?digits10@?$numeric_limits@D@std@@2HB
CONST	SEGMENT
?digits10@?$numeric_limits@D@std@@2HB DD 02H		; std::numeric_limits<char>::digits10
CONST	ENDS
;	COMDAT ?digits@?$numeric_limits@D@std@@2HB
CONST	SEGMENT
?digits@?$numeric_limits@D@std@@2HB DD 07H		; std::numeric_limits<char>::digits
CONST	ENDS
;	COMDAT ?is_signed@?$numeric_limits@D@std@@2_NB
CONST	SEGMENT
?is_signed@?$numeric_limits@D@std@@2_NB DB 01H		; std::numeric_limits<char>::is_signed
CONST	ENDS
;	COMDAT ?radix@_Num_float_base@std@@2HB
CONST	SEGMENT
?radix@_Num_float_base@std@@2HB DD 02H			; std::_Num_float_base::radix
CONST	ENDS
;	COMDAT ?round_style@_Num_float_base@std@@2W4float_round_style@2@B
CONST	SEGMENT
?round_style@_Num_float_base@std@@2W4float_round_style@2@B DD 01H ; std::_Num_float_base::round_style
CONST	ENDS
;	COMDAT ?traps@_Num_float_base@std@@2_NB
CONST	SEGMENT
?traps@_Num_float_base@std@@2_NB DB 01H			; std::_Num_float_base::traps
CONST	ENDS
;	COMDAT ?tinyness_before@_Num_float_base@std@@2_NB
CONST	SEGMENT
?tinyness_before@_Num_float_base@std@@2_NB DB 01H	; std::_Num_float_base::tinyness_before
CONST	ENDS
;	COMDAT ?is_specialized@_Num_float_base@std@@2_NB
CONST	SEGMENT
?is_specialized@_Num_float_base@std@@2_NB DB 01H	; std::_Num_float_base::is_specialized
CONST	ENDS
;	COMDAT ?is_signed@_Num_float_base@std@@2_NB
CONST	SEGMENT
?is_signed@_Num_float_base@std@@2_NB DB 01H		; std::_Num_float_base::is_signed
CONST	ENDS
;	COMDAT ?is_modulo@_Num_float_base@std@@2_NB
CONST	SEGMENT
?is_modulo@_Num_float_base@std@@2_NB DB 00H		; std::_Num_float_base::is_modulo
CONST	ENDS
;	COMDAT ?is_integer@_Num_float_base@std@@2_NB
CONST	SEGMENT
?is_integer@_Num_float_base@std@@2_NB DB 00H		; std::_Num_float_base::is_integer
CONST	ENDS
;	COMDAT ?is_iec559@_Num_float_base@std@@2_NB
CONST	SEGMENT
?is_iec559@_Num_float_base@std@@2_NB DB 01H		; std::_Num_float_base::is_iec559
CONST	ENDS
;	COMDAT ?is_exact@_Num_float_base@std@@2_NB
CONST	SEGMENT
?is_exact@_Num_float_base@std@@2_NB DB 00H		; std::_Num_float_base::is_exact
CONST	ENDS
;	COMDAT ?is_bounded@_Num_float_base@std@@2_NB
CONST	SEGMENT
?is_bounded@_Num_float_base@std@@2_NB DB 01H		; std::_Num_float_base::is_bounded
CONST	ENDS
;	COMDAT ?has_signaling_NaN@_Num_float_base@std@@2_NB
CONST	SEGMENT
?has_signaling_NaN@_Num_float_base@std@@2_NB DB 01H	; std::_Num_float_base::has_signaling_NaN
CONST	ENDS
;	COMDAT ?has_quiet_NaN@_Num_float_base@std@@2_NB
CONST	SEGMENT
?has_quiet_NaN@_Num_float_base@std@@2_NB DB 01H		; std::_Num_float_base::has_quiet_NaN
CONST	ENDS
;	COMDAT ?has_infinity@_Num_float_base@std@@2_NB
CONST	SEGMENT
?has_infinity@_Num_float_base@std@@2_NB DB 01H		; std::_Num_float_base::has_infinity
CONST	ENDS
;	COMDAT ?has_denorm_loss@_Num_float_base@std@@2_NB
CONST	SEGMENT
?has_denorm_loss@_Num_float_base@std@@2_NB DB 01H	; std::_Num_float_base::has_denorm_loss
CONST	ENDS
;	COMDAT ?has_denorm@_Num_float_base@std@@2W4float_denorm_style@2@B
CONST	SEGMENT
?has_denorm@_Num_float_base@std@@2W4float_denorm_style@2@B DD 01H ; std::_Num_float_base::has_denorm
CONST	ENDS
;	COMDAT ?radix@_Num_int_base@std@@2HB
CONST	SEGMENT
?radix@_Num_int_base@std@@2HB DD 02H			; std::_Num_int_base::radix
CONST	ENDS
;	COMDAT ?is_specialized@_Num_int_base@std@@2_NB
CONST	SEGMENT
?is_specialized@_Num_int_base@std@@2_NB DB 01H		; std::_Num_int_base::is_specialized
CONST	ENDS
;	COMDAT ?is_modulo@_Num_int_base@std@@2_NB
CONST	SEGMENT
?is_modulo@_Num_int_base@std@@2_NB DB 01H		; std::_Num_int_base::is_modulo
CONST	ENDS
;	COMDAT ?is_integer@_Num_int_base@std@@2_NB
CONST	SEGMENT
?is_integer@_Num_int_base@std@@2_NB DB 01H		; std::_Num_int_base::is_integer
CONST	ENDS
;	COMDAT ?is_exact@_Num_int_base@std@@2_NB
CONST	SEGMENT
?is_exact@_Num_int_base@std@@2_NB DB 01H		; std::_Num_int_base::is_exact
CONST	ENDS
;	COMDAT ?is_bounded@_Num_int_base@std@@2_NB
CONST	SEGMENT
?is_bounded@_Num_int_base@std@@2_NB DB 01H		; std::_Num_int_base::is_bounded
CONST	ENDS
;	COMDAT ?radix@_Num_base@std@@2HB
CONST	SEGMENT
?radix@_Num_base@std@@2HB DD 00H			; std::_Num_base::radix
CONST	ENDS
;	COMDAT ?min_exponent10@_Num_base@std@@2HB
CONST	SEGMENT
?min_exponent10@_Num_base@std@@2HB DD 00H		; std::_Num_base::min_exponent10
CONST	ENDS
;	COMDAT ?min_exponent@_Num_base@std@@2HB
CONST	SEGMENT
?min_exponent@_Num_base@std@@2HB DD 00H			; std::_Num_base::min_exponent
CONST	ENDS
;	COMDAT ?max_exponent10@_Num_base@std@@2HB
CONST	SEGMENT
?max_exponent10@_Num_base@std@@2HB DD 00H		; std::_Num_base::max_exponent10
CONST	ENDS
;	COMDAT ?max_exponent@_Num_base@std@@2HB
CONST	SEGMENT
?max_exponent@_Num_base@std@@2HB DD 00H			; std::_Num_base::max_exponent
CONST	ENDS
;	COMDAT ?max_digits10@_Num_base@std@@2HB
CONST	SEGMENT
?max_digits10@_Num_base@std@@2HB DD 00H			; std::_Num_base::max_digits10
CONST	ENDS
;	COMDAT ?digits10@_Num_base@std@@2HB
CONST	SEGMENT
?digits10@_Num_base@std@@2HB DD 00H			; std::_Num_base::digits10
CONST	ENDS
;	COMDAT ?digits@_Num_base@std@@2HB
CONST	SEGMENT
?digits@_Num_base@std@@2HB DD 00H			; std::_Num_base::digits
CONST	ENDS
;	COMDAT ?round_style@_Num_base@std@@2W4float_round_style@2@B
CONST	SEGMENT
?round_style@_Num_base@std@@2W4float_round_style@2@B DD 00H ; std::_Num_base::round_style
CONST	ENDS
;	COMDAT ?traps@_Num_base@std@@2_NB
CONST	SEGMENT
?traps@_Num_base@std@@2_NB DB 00H			; std::_Num_base::traps
CONST	ENDS
;	COMDAT ?tinyness_before@_Num_base@std@@2_NB
CONST	SEGMENT
?tinyness_before@_Num_base@std@@2_NB DB 00H		; std::_Num_base::tinyness_before
CONST	ENDS
;	COMDAT ?is_specialized@_Num_base@std@@2_NB
CONST	SEGMENT
?is_specialized@_Num_base@std@@2_NB DB 00H		; std::_Num_base::is_specialized
CONST	ENDS
;	COMDAT ?is_signed@_Num_base@std@@2_NB
CONST	SEGMENT
?is_signed@_Num_base@std@@2_NB DB 00H			; std::_Num_base::is_signed
CONST	ENDS
;	COMDAT ?is_modulo@_Num_base@std@@2_NB
CONST	SEGMENT
?is_modulo@_Num_base@std@@2_NB DB 00H			; std::_Num_base::is_modulo
CONST	ENDS
;	COMDAT ?is_integer@_Num_base@std@@2_NB
CONST	SEGMENT
?is_integer@_Num_base@std@@2_NB DB 00H			; std::_Num_base::is_integer
CONST	ENDS
;	COMDAT ?is_iec559@_Num_base@std@@2_NB
CONST	SEGMENT
?is_iec559@_Num_base@std@@2_NB DB 00H			; std::_Num_base::is_iec559
CONST	ENDS
;	COMDAT ?is_exact@_Num_base@std@@2_NB
CONST	SEGMENT
?is_exact@_Num_base@std@@2_NB DB 00H			; std::_Num_base::is_exact
CONST	ENDS
;	COMDAT ?is_bounded@_Num_base@std@@2_NB
CONST	SEGMENT
?is_bounded@_Num_base@std@@2_NB DB 00H			; std::_Num_base::is_bounded
CONST	ENDS
;	COMDAT ?has_signaling_NaN@_Num_base@std@@2_NB
CONST	SEGMENT
?has_signaling_NaN@_Num_base@std@@2_NB DB 00H		; std::_Num_base::has_signaling_NaN
CONST	ENDS
;	COMDAT ?has_quiet_NaN@_Num_base@std@@2_NB
CONST	SEGMENT
?has_quiet_NaN@_Num_base@std@@2_NB DB 00H		; std::_Num_base::has_quiet_NaN
CONST	ENDS
;	COMDAT ?has_infinity@_Num_base@std@@2_NB
CONST	SEGMENT
?has_infinity@_Num_base@std@@2_NB DB 00H		; std::_Num_base::has_infinity
CONST	ENDS
;	COMDAT ?has_denorm_loss@_Num_base@std@@2_NB
CONST	SEGMENT
?has_denorm_loss@_Num_base@std@@2_NB DB 00H		; std::_Num_base::has_denorm_loss
CONST	ENDS
;	COMDAT ?has_denorm@_Num_base@std@@2W4float_denorm_style@2@B
CONST	SEGMENT
?has_denorm@_Num_base@std@@2W4float_denorm_style@2@B DD 00H ; std::_Num_base::has_denorm
CONST	ENDS
PUBLIC	??_7bad_alloc@std@@6B@				; std::bad_alloc::`vftable'
PUBLIC	??0bad_alloc@std@@QAE@PBD@Z			; std::bad_alloc::bad_alloc
PUBLIC	??_R4bad_alloc@std@@6B@				; std::bad_alloc::`RTTI Complete Object Locator'
PUBLIC	??_R0?AVbad_alloc@std@@@8			; std::bad_alloc `RTTI Type Descriptor'
PUBLIC	??_R3bad_alloc@std@@8				; std::bad_alloc::`RTTI Class Hierarchy Descriptor'
PUBLIC	??_R2bad_alloc@std@@8				; std::bad_alloc::`RTTI Base Class Array'
PUBLIC	??_R1A@?0A@EA@bad_alloc@std@@8			; std::bad_alloc::`RTTI Base Class Descriptor at (0,-1,0,64)'
PUBLIC	??_R1A@?0A@EA@exception@std@@8			; std::exception::`RTTI Base Class Descriptor at (0,-1,0,64)'
PUBLIC	??_R0?AVexception@std@@@8			; std::exception `RTTI Type Descriptor'
PUBLIC	??_R3exception@std@@8				; std::exception::`RTTI Class Hierarchy Descriptor'
PUBLIC	??_R2exception@std@@8				; std::exception::`RTTI Base Class Array'
EXTRN	??0exception@std@@QAE@ABQBD@Z:PROC		; std::exception::exception
EXTRN	??_7type_info@@6B@:QWORD			; type_info::`vftable'
EXTRN	??_Ebad_alloc@std@@UAEPAXI@Z:PROC		; std::bad_alloc::`vector deleting destructor'
EXTRN	?what@exception@std@@UBEPBDXZ:PROC		; std::exception::what
;	COMDAT ??_R2exception@std@@8
; File c:\program files (x86)\microsoft visual studio 10.0\vc\include\exception
rdata$r	SEGMENT
??_R2exception@std@@8 DD FLAT:??_R1A@?0A@EA@exception@std@@8 ; std::exception::`RTTI Base Class Array'
rdata$r	ENDS
;	COMDAT ??_R3exception@std@@8
rdata$r	SEGMENT
??_R3exception@std@@8 DD 00H				; std::exception::`RTTI Class Hierarchy Descriptor'
	DD	00H
	DD	01H
	DD	FLAT:??_R2exception@std@@8
rdata$r	ENDS
;	COMDAT ??_R0?AVexception@std@@@8
_DATA	SEGMENT
??_R0?AVexception@std@@@8 DD FLAT:??_7type_info@@6B@	; std::exception `RTTI Type Descriptor'
	DD	00H
	DB	'.?AVexception@std@@', 00H
_DATA	ENDS
;	COMDAT ??_R1A@?0A@EA@exception@std@@8
rdata$r	SEGMENT
??_R1A@?0A@EA@exception@std@@8 DD FLAT:??_R0?AVexception@std@@@8 ; std::exception::`RTTI Base Class Descriptor at (0,-1,0,64)'
	DD	00H
	DD	00H
	DD	0ffffffffH
	DD	00H
	DD	040H
	DD	FLAT:??_R3exception@std@@8
rdata$r	ENDS
;	COMDAT ??_R1A@?0A@EA@bad_alloc@std@@8
rdata$r	SEGMENT
??_R1A@?0A@EA@bad_alloc@std@@8 DD FLAT:??_R0?AVbad_alloc@std@@@8 ; std::bad_alloc::`RTTI Base Class Descriptor at (0,-1,0,64)'
	DD	01H
	DD	00H
	DD	0ffffffffH
	DD	00H
	DD	040H
	DD	FLAT:??_R3bad_alloc@std@@8
rdata$r	ENDS
;	COMDAT ??_R2bad_alloc@std@@8
rdata$r	SEGMENT
??_R2bad_alloc@std@@8 DD FLAT:??_R1A@?0A@EA@bad_alloc@std@@8 ; std::bad_alloc::`RTTI Base Class Array'
	DD	FLAT:??_R1A@?0A@EA@exception@std@@8
rdata$r	ENDS
;	COMDAT ??_R3bad_alloc@std@@8
rdata$r	SEGMENT
??_R3bad_alloc@std@@8 DD 00H				; std::bad_alloc::`RTTI Class Hierarchy Descriptor'
	DD	00H
	DD	02H
	DD	FLAT:??_R2bad_alloc@std@@8
rdata$r	ENDS
;	COMDAT ??_R0?AVbad_alloc@std@@@8
_DATA	SEGMENT
??_R0?AVbad_alloc@std@@@8 DD FLAT:??_7type_info@@6B@	; std::bad_alloc `RTTI Type Descriptor'
	DD	00H
	DB	'.?AVbad_alloc@std@@', 00H
_DATA	ENDS
;	COMDAT ??_R4bad_alloc@std@@6B@
rdata$r	SEGMENT
??_R4bad_alloc@std@@6B@ DD 00H				; std::bad_alloc::`RTTI Complete Object Locator'
	DD	00H
	DD	00H
	DD	FLAT:??_R0?AVbad_alloc@std@@@8
	DD	FLAT:??_R3bad_alloc@std@@8
rdata$r	ENDS
;	COMDAT ??_7bad_alloc@std@@6B@
CONST	SEGMENT
??_7bad_alloc@std@@6B@ DD FLAT:??_R4bad_alloc@std@@6B@	; std::bad_alloc::`vftable'
	DD	FLAT:??_Ebad_alloc@std@@UAEPAXI@Z
	DD	FLAT:?what@exception@std@@UBEPBDXZ
; Function compile flags: /Ogsp
CONST	ENDS
;	COMDAT ??0bad_alloc@std@@QAE@PBD@Z
_TEXT	SEGMENT
__Message$ = 8						; size = 4
??0bad_alloc@std@@QAE@PBD@Z PROC			; std::bad_alloc::bad_alloc, COMDAT
; _this$ = ecx

; 345  : 		{	// construct from message string

  00000	55		 push	 ebp
  00001	8b ec		 mov	 ebp, esp
  00003	56		 push	 esi
  00004	8d 45 08	 lea	 eax, DWORD PTR __Message$[ebp]
  00007	50		 push	 eax
  00008	8b f1		 mov	 esi, ecx
  0000a	e8 00 00 00 00	 call	 ??0exception@std@@QAE@ABQBD@Z ; std::exception::exception
  0000f	c7 06 00 00 00
	00		 mov	 DWORD PTR [esi], OFFSET ??_7bad_alloc@std@@6B@

; 346  : 		}

  00015	8b c6		 mov	 eax, esi
  00017	5e		 pop	 esi
  00018	5d		 pop	 ebp
  00019	c2 04 00	 ret	 4
??0bad_alloc@std@@QAE@PBD@Z ENDP			; std::bad_alloc::bad_alloc
_TEXT	ENDS
PUBLIC	??1bad_alloc@std@@UAE@XZ			; std::bad_alloc::~bad_alloc
EXTRN	??1exception@std@@UAE@XZ:PROC			; std::exception::~exception
; Function compile flags: /Ogsp
;	COMDAT ??1bad_alloc@std@@UAE@XZ
_TEXT	SEGMENT
??1bad_alloc@std@@UAE@XZ PROC				; std::bad_alloc::~bad_alloc, COMDAT
; _this$ = ecx

; 354  : 		{	// destroy the object

  00000	c7 01 00 00 00
	00		 mov	 DWORD PTR [ecx], OFFSET ??_7bad_alloc@std@@6B@

; 355  : 		}

  00006	e9 00 00 00 00	 jmp	 ??1exception@std@@UAE@XZ ; std::exception::~exception
??1bad_alloc@std@@UAE@XZ ENDP				; std::bad_alloc::~bad_alloc
_TEXT	ENDS
EXTRN	??3@YAXPAX@Z:PROC				; operator delete
; Function compile flags: /Ogsp
;	COMDAT ??_Gbad_alloc@std@@UAEPAXI@Z
_TEXT	SEGMENT
___flags$ = 8						; size = 4
??_Gbad_alloc@std@@UAEPAXI@Z PROC			; std::bad_alloc::`scalar deleting destructor', COMDAT
; _this$ = ecx
  00000	55		 push	 ebp
  00001	8b ec		 mov	 ebp, esp
  00003	56		 push	 esi
  00004	8b f1		 mov	 esi, ecx
  00006	c7 06 00 00 00
	00		 mov	 DWORD PTR [esi], OFFSET ??_7bad_alloc@std@@6B@
  0000c	e8 00 00 00 00	 call	 ??1exception@std@@UAE@XZ ; std::exception::~exception
  00011	f6 45 08 01	 test	 BYTE PTR ___flags$[ebp], 1
  00015	74 07		 je	 SHORT $LN1@scalar
  00017	56		 push	 esi
  00018	e8 00 00 00 00	 call	 ??3@YAXPAX@Z		; operator delete
  0001d	59		 pop	 ecx
$LN1@scalar:
  0001e	8b c6		 mov	 eax, esi
  00020	5e		 pop	 esi
  00021	5d		 pop	 ebp
  00022	c2 04 00	 ret	 4
??_Gbad_alloc@std@@UAEPAXI@Z ENDP			; std::bad_alloc::`scalar deleting destructor'
_TEXT	ENDS
PUBLIC	??2@YAPAXIPAX@Z					; operator new
; Function compile flags: /Ogsp
; File c:\program files (x86)\microsoft visual studio 10.0\vc\include\new
;	COMDAT ??2@YAPAXIPAX@Z
_TEXT	SEGMENT
___formal$ = 8						; size = 4
__Where$ = 12						; size = 4
??2@YAPAXIPAX@Z PROC					; operator new, COMDAT

; 56   : 	{	// construct array with placement at _Where

  00000	55		 push	 ebp
  00001	8b ec		 mov	 ebp, esp

; 57   : 	return (_Where);

  00003	8b 45 0c	 mov	 eax, DWORD PTR __Where$[ebp]

; 58   : 	}

  00006	5d		 pop	 ebp
  00007	c3		 ret	 0
??2@YAPAXIPAX@Z ENDP					; operator new
_TEXT	ENDS
PUBLIC	??3@YAXPAX0@Z					; operator delete
; Function compile flags: /Ogsp
;	COMDAT ??3@YAXPAX0@Z
_TEXT	SEGMENT
___formal$ = 8						; size = 4
___formal$ = 12						; size = 4
??3@YAXPAX0@Z PROC					; operator delete, COMDAT

; 62   : 	}

  00000	c3		 ret	 0
??3@YAXPAX0@Z ENDP					; operator delete
_TEXT	ENDS
PUBLIC	?length@?$char_traits@D@std@@SAIPBD@Z		; std::char_traits<char>::length
EXTRN	_strlen:PROC
; Function compile flags: /Ogsp
; File c:\program files (x86)\microsoft visual studio 10.0\vc\include\iosfwd
;	COMDAT ?length@?$char_traits@D@std@@SAIPBD@Z
_TEXT	SEGMENT
__First$ = 8						; size = 4
?length@?$char_traits@D@std@@SAIPBD@Z PROC		; std::char_traits<char>::length, COMDAT

; 490  : 		{	// find length of null-terminated string

  00000	55		 push	 ebp
  00001	8b ec		 mov	 ebp, esp

; 492  : 		}

  00003	5d		 pop	 ebp

; 491  : 		return (_CSTD strlen(_First));

  00004	e9 00 00 00 00	 jmp	 _strlen
?length@?$char_traits@D@std@@SAIPBD@Z ENDP		; std::char_traits<char>::length
_TEXT	ENDS
PUBLIC	?copy@?$char_traits@D@std@@SAPADPADPBDI@Z	; std::char_traits<char>::copy
EXTRN	_memcpy:PROC
; Function compile flags: /Ogsp
;	COMDAT ?copy@?$char_traits@D@std@@SAPADPADPBDI@Z
_TEXT	SEGMENT
__First1$ = 8						; size = 4
__First2$ = 12						; size = 4
__Count$ = 16						; size = 4
?copy@?$char_traits@D@std@@SAPADPADPBDI@Z PROC		; std::char_traits<char>::copy, COMDAT

; 496  : 		{	// copy [_First1, _First1 + _Count) to [_First2, ...)

  00000	55		 push	 ebp
  00001	8b ec		 mov	 ebp, esp

; 498  : 		}

  00003	5d		 pop	 ebp

; 497  : 		return ((_Elem *)_CSTD memcpy(_First1, _First2, _Count));

  00004	e9 00 00 00 00	 jmp	 _memcpy
?copy@?$char_traits@D@std@@SAPADPADPBDI@Z ENDP		; std::char_traits<char>::copy
_TEXT	ENDS
PUBLIC	?move@?$char_traits@D@std@@SAPADPADPBDI@Z	; std::char_traits<char>::move
EXTRN	_memmove:PROC
; Function compile flags: /Ogsp
;	COMDAT ?move@?$char_traits@D@std@@SAPADPADPBDI@Z
_TEXT	SEGMENT
__First1$ = 8						; size = 4
__First2$ = 12						; size = 4
__Count$ = 16						; size = 4
?move@?$char_traits@D@std@@SAPADPADPBDI@Z PROC		; std::char_traits<char>::move, COMDAT

; 516  : 		{	// copy [_First1, _First1 + _Count) to [_First2, ...)

  00000	55		 push	 ebp
  00001	8b ec		 mov	 ebp, esp

; 518  : 		}

  00003	5d		 pop	 ebp

; 517  : 		return ((_Elem *)_CSTD memmove(_First1, _First2, _Count));

  00004	e9 00 00 00 00	 jmp	 _memmove
?move@?$char_traits@D@std@@SAPADPADPBDI@Z ENDP		; std::char_traits<char>::move
_TEXT	ENDS
PUBLIC	?assign@?$char_traits@D@std@@SAPADPADID@Z	; std::char_traits<char>::assign
EXTRN	_memset:PROC
; Function compile flags: /Ogsp
;	COMDAT ?assign@?$char_traits@D@std@@SAPADPADID@Z
_TEXT	SEGMENT
__First$ = 8						; size = 4
__Count$ = 12						; size = 4
__Ch$ = 16						; size = 1
?assign@?$char_traits@D@std@@SAPADPADID@Z PROC		; std::char_traits<char>::assign, COMDAT

; 521  : 		{	// assign _Count * _Ch to [_First, ...)

  00000	55		 push	 ebp
  00001	8b ec		 mov	 ebp, esp

; 522  : 		return ((_Elem *)_CSTD memset(_First, _Ch, _Count));

  00003	0f be 45 10	 movsx	 eax, BYTE PTR __Ch$[ebp]
  00007	ff 75 0c	 push	 DWORD PTR __Count$[ebp]
  0000a	50		 push	 eax
  0000b	ff 75 08	 push	 DWORD PTR __First$[ebp]
  0000e	e8 00 00 00 00	 call	 _memset
  00013	83 c4 0c	 add	 esp, 12			; 0000000cH

; 523  : 		}

  00016	5d		 pop	 ebp
  00017	c3		 ret	 0
?assign@?$char_traits@D@std@@SAPADPADID@Z ENDP		; std::char_traits<char>::assign
_TEXT	ENDS
PUBLIC	?assign@?$char_traits@D@std@@SAXAADABD@Z	; std::char_traits<char>::assign
; Function compile flags: /Ogsp
;	COMDAT ?assign@?$char_traits@D@std@@SAXAADABD@Z
_TEXT	SEGMENT
__Left$ = 8						; size = 4
__Right$ = 12						; size = 4
?assign@?$char_traits@D@std@@SAXAADABD@Z PROC		; std::char_traits<char>::assign, COMDAT

; 526  : 		{	// assign an element

  00000	55		 push	 ebp
  00001	8b ec		 mov	 ebp, esp

; 527  : 		_Left = _Right;

  00003	8b 45 0c	 mov	 eax, DWORD PTR __Right$[ebp]
  00006	8a 00		 mov	 al, BYTE PTR [eax]
  00008	8b 4d 08	 mov	 ecx, DWORD PTR __Left$[ebp]
  0000b	88 01		 mov	 BYTE PTR [ecx], al

; 528  : 		}

  0000d	5d		 pop	 ebp
  0000e	c3		 ret	 0
?assign@?$char_traits@D@std@@SAXAADABD@Z ENDP		; std::char_traits<char>::assign
_TEXT	ENDS
PUBLIC	?to_char_type@?$char_traits@D@std@@SADABH@Z	; std::char_traits<char>::to_char_type
; Function compile flags: /Ogsp
;	COMDAT ?to_char_type@?$char_traits@D@std@@SADABH@Z
_TEXT	SEGMENT
__Meta$ = 8						; size = 4
?to_char_type@?$char_traits@D@std@@SADABH@Z PROC	; std::char_traits<char>::to_char_type, COMDAT

; 541  : 		{	// convert metacharacter to character

  00000	55		 push	 ebp
  00001	8b ec		 mov	 ebp, esp

; 542  : 		return ((_Elem)_Meta);

  00003	8b 45 08	 mov	 eax, DWORD PTR __Meta$[ebp]
  00006	8a 00		 mov	 al, BYTE PTR [eax]

; 543  : 		}

  00008	5d		 pop	 ebp
  00009	c3		 ret	 0
?to_char_type@?$char_traits@D@std@@SADABH@Z ENDP	; std::char_traits<char>::to_char_type
_TEXT	ENDS
PUBLIC	?to_int_type@?$char_traits@D@std@@SAHABD@Z	; std::char_traits<char>::to_int_type
; Function compile flags: /Ogsp
;	COMDAT ?to_int_type@?$char_traits@D@std@@SAHABD@Z
_TEXT	SEGMENT
__Ch$ = 8						; size = 4
?to_int_type@?$char_traits@D@std@@SAHABD@Z PROC		; std::char_traits<char>::to_int_type, COMDAT

; 546  : 		{	// convert character to metacharacter

  00000	55		 push	 ebp
  00001	8b ec		 mov	 ebp, esp

; 547  : 		return ((unsigned char)_Ch);

  00003	8b 45 08	 mov	 eax, DWORD PTR __Ch$[ebp]
  00006	0f b6 00	 movzx	 eax, BYTE PTR [eax]

; 548  : 		}

  00009	5d		 pop	 ebp
  0000a	c3		 ret	 0
?to_int_type@?$char_traits@D@std@@SAHABD@Z ENDP		; std::char_traits<char>::to_int_type
_TEXT	ENDS
PUBLIC	?eq_int_type@?$char_traits@D@std@@SA_NABH0@Z	; std::char_traits<char>::eq_int_type
; Function compile flags: /Ogsp
;	COMDAT ?eq_int_type@?$char_traits@D@std@@SA_NABH0@Z
_TEXT	SEGMENT
__Left$ = 8						; size = 4
__Right$ = 12						; size = 4
?eq_int_type@?$char_traits@D@std@@SA_NABH0@Z PROC	; std::char_traits<char>::eq_int_type, COMDAT

; 552  : 		{	// test for metacharacter equality

  00000	55		 push	 ebp
  00001	8b ec		 mov	 ebp, esp

; 553  : 		return (_Left == _Right);

  00003	8b 45 08	 mov	 eax, DWORD PTR __Left$[ebp]
  00006	8b 00		 mov	 eax, DWORD PTR [eax]
  00008	8b 4d 0c	 mov	 ecx, DWORD PTR __Right$[ebp]
  0000b	2b 01		 sub	 eax, DWORD PTR [ecx]
  0000d	f7 d8		 neg	 eax
  0000f	1b c0		 sbb	 eax, eax
  00011	40		 inc	 eax

; 554  : 		}

  00012	5d		 pop	 ebp
  00013	c3		 ret	 0
?eq_int_type@?$char_traits@D@std@@SA_NABH0@Z ENDP	; std::char_traits<char>::eq_int_type
_TEXT	ENDS
PUBLIC	?eof@?$char_traits@D@std@@SAHXZ			; std::char_traits<char>::eof
; Function compile flags: /Ogsp
;	COMDAT ?eof@?$char_traits@D@std@@SAHXZ
_TEXT	SEGMENT
?eof@?$char_traits@D@std@@SAHXZ PROC			; std::char_traits<char>::eof, COMDAT

; 563  : 		return (EOF);

  00000	83 c8 ff	 or	 eax, -1

; 564  : 		}

  00003	c3		 ret	 0
?eof@?$char_traits@D@std@@SAHXZ ENDP			; std::char_traits<char>::eof
_TEXT	ENDS
PUBLIC	??0_Container_proxy@std@@QAE@XZ			; std::_Container_proxy::_Container_proxy
; Function compile flags: /Ogsp
; File c:\program files (x86)\microsoft visual studio 10.0\vc\include\xutility
;	COMDAT ??0_Container_proxy@std@@QAE@XZ
_TEXT	SEGMENT
??0_Container_proxy@std@@QAE@XZ PROC			; std::_Container_proxy::_Container_proxy, COMDAT
; _this$ = ecx

; 65   : 		{	// construct from pointers

  00000	8b c1		 mov	 eax, ecx
  00002	83 20 00	 and	 DWORD PTR [eax], 0
  00005	83 60 04 00	 and	 DWORD PTR [eax+4], 0

; 66   : 		}

  00009	c3		 ret	 0
??0_Container_proxy@std@@QAE@XZ ENDP			; std::_Container_proxy::_Container_proxy
_TEXT	ENDS
PUBLIC	??0_Container_base12@std@@QAE@XZ		; std::_Container_base12::_Container_base12
; Function compile flags: /Ogsp
;	COMDAT ??0_Container_base12@std@@QAE@XZ
_TEXT	SEGMENT
??0_Container_base12@std@@QAE@XZ PROC			; std::_Container_base12::_Container_base12, COMDAT
; _this$ = ecx

; 77   : 		{	// construct childless container

  00000	8b c1		 mov	 eax, ecx
  00002	83 20 00	 and	 DWORD PTR [eax], 0

; 78   : 		}

  00005	c3		 ret	 0
??0_Container_base12@std@@QAE@XZ ENDP			; std::_Container_base12::_Container_base12
_TEXT	ENDS
PUBLIC	??0_Iterator_base12@std@@QAE@XZ			; std::_Iterator_base12::_Iterator_base12
; Function compile flags: /Ogsp
;	COMDAT ??0_Iterator_base12@std@@QAE@XZ
_TEXT	SEGMENT
??0_Iterator_base12@std@@QAE@XZ PROC			; std::_Iterator_base12::_Iterator_base12, COMDAT
; _this$ = ecx

; 111  : 		{	// construct orphaned iterator

  00000	8b c1		 mov	 eax, ecx
  00002	83 20 00	 and	 DWORD PTR [eax], 0
  00005	83 60 04 00	 and	 DWORD PTR [eax+4], 0

; 112  : 		}

  00009	c3		 ret	 0
??0_Iterator_base12@std@@QAE@XZ ENDP			; std::_Iterator_base12::_Iterator_base12
_TEXT	ENDS
PUBLIC	??1_Iterator_base12@std@@QAE@XZ			; std::_Iterator_base12::~_Iterator_base12
; Function compile flags: /Ogsp
;	COMDAT ??1_Iterator_base12@std@@QAE@XZ
_TEXT	SEGMENT
??1_Iterator_base12@std@@QAE@XZ PROC			; std::_Iterator_base12::~_Iterator_base12, COMDAT
; _this$ = ecx

; 129  :  #if _ITERATOR_DEBUG_LEVEL == 2
; 130  : 		_Lockit _Lock(_LOCK_DEBUG);
; 131  : 		_Orphan_me();
; 132  :  #endif /* _ITERATOR_DEBUG_LEVEL == 2 */
; 133  : 		}

  00000	c3		 ret	 0
??1_Iterator_base12@std@@QAE@XZ ENDP			; std::_Iterator_base12::~_Iterator_base12
_TEXT	ENDS
PUBLIC	?_Adopt@_Iterator_base12@std@@QAEXPBU_Container_base12@2@@Z ; std::_Iterator_base12::_Adopt
; Function compile flags: /Ogsp
;	COMDAT ?_Adopt@_Iterator_base12@std@@QAEXPBU_Container_base12@2@@Z
_TEXT	SEGMENT
__Parent$ = 8						; size = 4
?_Adopt@_Iterator_base12@std@@QAEXPBU_Container_base12@2@@Z PROC ; std::_Iterator_base12::_Adopt, COMDAT
; _this$ = ecx

; 136  : 		{	// adopt this iterator by parent

  00000	55		 push	 ebp
  00001	8b ec		 mov	 ebp, esp

; 137  : 		if (_Parent != 0)

  00003	8b 45 08	 mov	 eax, DWORD PTR __Parent$[ebp]
  00006	85 c0		 test	 eax, eax
  00008	74 04		 je	 SHORT $LN1@Adopt

; 138  : 			{	// have a parent, do adoption
; 139  : 			_Container_proxy *_Parent_proxy = _Parent->_Myproxy;
; 140  : 
; 141  :  #if _ITERATOR_DEBUG_LEVEL == 2
; 142  : 			if (_Myproxy != _Parent_proxy)
; 143  : 				{	// change parentage
; 144  : 				_Lockit _Lock(_LOCK_DEBUG);
; 145  : 				_Orphan_me();
; 146  : 				_Mynextiter = _Parent_proxy->_Myfirstiter;
; 147  : 				_Parent_proxy->_Myfirstiter = this;
; 148  : 				_Myproxy = _Parent_proxy;
; 149  : 				}
; 150  :  #else /* _ITERATOR_DEBUG_LEVEL == 2 */
; 151  : 			_Myproxy = _Parent_proxy;

  0000a	8b 00		 mov	 eax, DWORD PTR [eax]
  0000c	89 01		 mov	 DWORD PTR [ecx], eax
$LN1@Adopt:

; 152  :  #endif /* _ITERATOR_DEBUG_LEVEL == 2 */
; 153  : 			}
; 154  : 		}

  0000e	5d		 pop	 ebp
  0000f	c2 04 00	 ret	 4
?_Adopt@_Iterator_base12@std@@QAEXPBU_Container_base12@2@@Z ENDP ; std::_Iterator_base12::_Adopt
_TEXT	ENDS
PUBLIC	?_Getcont@_Iterator_base12@std@@QBEPBU_Container_base12@2@XZ ; std::_Iterator_base12::_Getcont
; Function compile flags: /Ogsp
;	COMDAT ?_Getcont@_Iterator_base12@std@@QBEPBU_Container_base12@2@XZ
_TEXT	SEGMENT
?_Getcont@_Iterator_base12@std@@QBEPBU_Container_base12@2@XZ PROC ; std::_Iterator_base12::_Getcont, COMDAT
; _this$ = ecx

; 163  : 		return (_Myproxy == 0 ? 0 : _Myproxy->_Mycont);

  00000	8b 01		 mov	 eax, DWORD PTR [ecx]
  00002	85 c0		 test	 eax, eax
  00004	75 01		 jne	 SHORT $LN3@Getcont

; 164  : 		}

  00006	c3		 ret	 0
$LN3@Getcont:

; 163  : 		return (_Myproxy == 0 ? 0 : _Myproxy->_Mycont);

  00007	8b 00		 mov	 eax, DWORD PTR [eax]

; 164  : 		}

  00009	c3		 ret	 0
?_Getcont@_Iterator_base12@std@@QBEPBU_Container_base12@2@XZ ENDP ; std::_Iterator_base12::_Getcont
_TEXT	ENDS
PUBLIC	?_Orphan_all@_Container_base12@std@@QAEXXZ	; std::_Container_base12::_Orphan_all
; Function compile flags: /Ogsp
;	COMDAT ?_Orphan_all@_Container_base12@std@@QAEXXZ
_TEXT	SEGMENT
?_Orphan_all@_Container_base12@std@@QAEXXZ PROC		; std::_Container_base12::_Orphan_all, COMDAT
; _this$ = ecx

; 195  :  #if _ITERATOR_DEBUG_LEVEL == 2
; 196  : 	if (_Myproxy != 0)
; 197  : 		{	// proxy allocated, drain it
; 198  : 		_Lockit _Lock(_LOCK_DEBUG);
; 199  : 
; 200  : 		for (_Iterator_base12 **_Pnext = &_Myproxy->_Myfirstiter;
; 201  : 			*_Pnext != 0; *_Pnext = (*_Pnext)->_Mynextiter)
; 202  : 			(*_Pnext)->_Myproxy = 0;
; 203  : 		_Myproxy->_Myfirstiter = 0;
; 204  : 		}
; 205  :  #endif /* _ITERATOR_DEBUG_LEVEL == 2 */
; 206  : 	}

  00000	c3		 ret	 0
?_Orphan_all@_Container_base12@std@@QAEXXZ ENDP		; std::_Container_base12::_Orphan_all
_TEXT	ENDS
PUBLIC	??_7runtime_error@std@@6B@			; std::runtime_error::`vftable'
PUBLIC	??0runtime_error@std@@QAE@PBD@Z			; std::runtime_error::runtime_error
PUBLIC	??_R4runtime_error@std@@6B@			; std::runtime_error::`RTTI Complete Object Locator'
PUBLIC	??_R0?AVruntime_error@std@@@8			; std::runtime_error `RTTI Type Descriptor'
PUBLIC	??_R3runtime_error@std@@8			; std::runtime_error::`RTTI Class Hierarchy Descriptor'
PUBLIC	??_R2runtime_error@std@@8			; std::runtime_error::`RTTI Base Class Array'
PUBLIC	??_R1A@?0A@EA@runtime_error@std@@8		; std::runtime_error::`RTTI Base Class Descriptor at (0,-1,0,64)'
EXTRN	??_Eruntime_error@std@@UAEPAXI@Z:PROC		; std::runtime_error::`vector deleting destructor'
;	COMDAT ??_R1A@?0A@EA@runtime_error@std@@8
; File c:\program files (x86)\microsoft visual studio 10.0\vc\include\stdexcept
rdata$r	SEGMENT
??_R1A@?0A@EA@runtime_error@std@@8 DD FLAT:??_R0?AVruntime_error@std@@@8 ; std::runtime_error::`RTTI Base Class Descriptor at (0,-1,0,64)'
	DD	01H
	DD	00H
	DD	0ffffffffH
	DD	00H
	DD	040H
	DD	FLAT:??_R3runtime_error@std@@8
rdata$r	ENDS
;	COMDAT ??_R2runtime_error@std@@8
rdata$r	SEGMENT
??_R2runtime_error@std@@8 DD FLAT:??_R1A@?0A@EA@runtime_error@std@@8 ; std::runtime_error::`RTTI Base Class Array'
	DD	FLAT:??_R1A@?0A@EA@exception@std@@8
rdata$r	ENDS
;	COMDAT ??_R3runtime_error@std@@8
rdata$r	SEGMENT
??_R3runtime_error@std@@8 DD 00H			; std::runtime_error::`RTTI Class Hierarchy Descriptor'
	DD	00H
	DD	02H
	DD	FLAT:??_R2runtime_error@std@@8
rdata$r	ENDS
;	COMDAT ??_R0?AVruntime_error@std@@@8
_DATA	SEGMENT
??_R0?AVruntime_error@std@@@8 DD FLAT:??_7type_info@@6B@ ; std::runtime_error `RTTI Type Descriptor'
	DD	00H
	DB	'.?AVruntime_error@std@@', 00H
_DATA	ENDS
;	COMDAT ??_R4runtime_error@std@@6B@
rdata$r	SEGMENT
??_R4runtime_error@std@@6B@ DD 00H			; std::runtime_error::`RTTI Complete Object Locator'
	DD	00H
	DD	00H
	DD	FLAT:??_R0?AVruntime_error@std@@@8
	DD	FLAT:??_R3runtime_error@std@@8
rdata$r	ENDS
;	COMDAT ??_7runtime_error@std@@6B@
CONST	SEGMENT
??_7runtime_error@std@@6B@ DD FLAT:??_R4runtime_error@std@@6B@ ; std::runtime_error::`vftable'
	DD	FLAT:??_Eruntime_error@std@@UAEPAXI@Z
	DD	FLAT:?what@exception@std@@UBEPBDXZ
; Function compile flags: /Ogsp
CONST	ENDS
;	COMDAT ??0runtime_error@std@@QAE@PBD@Z
_TEXT	SEGMENT
__Message$ = 8						; size = 4
??0runtime_error@std@@QAE@PBD@Z PROC			; std::runtime_error::runtime_error, COMDAT
; _this$ = ecx

; 170  : 		{	// construct from message string

  00000	55		 push	 ebp
  00001	8b ec		 mov	 ebp, esp
  00003	56		 push	 esi
  00004	8d 45 08	 lea	 eax, DWORD PTR __Message$[ebp]
  00007	50		 push	 eax
  00008	8b f1		 mov	 esi, ecx
  0000a	e8 00 00 00 00	 call	 ??0exception@std@@QAE@ABQBD@Z ; std::exception::exception
  0000f	c7 06 00 00 00
	00		 mov	 DWORD PTR [esi], OFFSET ??_7runtime_error@std@@6B@

; 171  : 		}

  00015	8b c6		 mov	 eax, esi
  00017	5e		 pop	 esi
  00018	5d		 pop	 ebp
  00019	c2 04 00	 ret	 4
??0runtime_error@std@@QAE@PBD@Z ENDP			; std::runtime_error::runtime_error
_TEXT	ENDS
PUBLIC	??1runtime_error@std@@UAE@XZ			; std::runtime_error::~runtime_error
; Function compile flags: /Ogsp
;	COMDAT ??1runtime_error@std@@UAE@XZ
_TEXT	SEGMENT
??1runtime_error@std@@UAE@XZ PROC			; std::runtime_error::~runtime_error, COMDAT
; _this$ = ecx
  00000	e9 00 00 00 00	 jmp	 ??1exception@std@@UAE@XZ ; std::exception::~exception
??1runtime_error@std@@UAE@XZ ENDP			; std::runtime_error::~runtime_error
_TEXT	ENDS
PUBLIC	?_Getctype@_Locinfo@std@@QBE?AU_Ctypevec@@XZ	; std::_Locinfo::_Getctype
EXTRN	__Getctype:PROC
; Function compile flags: /Ogsp
; File c:\program files (x86)\microsoft visual studio 10.0\vc\include\xlocinfo
;	COMDAT ?_Getctype@_Locinfo@std@@QBE?AU_Ctypevec@@XZ
_TEXT	SEGMENT
$T40856 = -16						; size = 16
___$ReturnUdt$ = 8					; size = 4
?_Getctype@_Locinfo@std@@QBE?AU_Ctypevec@@XZ PROC	; std::_Locinfo::_Getctype, COMDAT
; _this$ = ecx

; 117  : 		{	// return ctype stuff

  00000	55		 push	 ebp
  00001	8b ec		 mov	 ebp, esp
  00003	83 ec 10	 sub	 esp, 16			; 00000010H
  00006	56		 push	 esi

; 118  : 		return (::_Getctype());

  00007	8d 45 f0	 lea	 eax, DWORD PTR $T40856[ebp]
  0000a	57		 push	 edi
  0000b	50		 push	 eax
  0000c	e8 00 00 00 00	 call	 __Getctype
  00011	8b f0		 mov	 esi, eax
  00013	8b 45 08	 mov	 eax, DWORD PTR ___$ReturnUdt$[ebp]
  00016	8b f8		 mov	 edi, eax
  00018	a5		 movsd
  00019	a5		 movsd
  0001a	a5		 movsd
  0001b	59		 pop	 ecx
  0001c	a5		 movsd
  0001d	5f		 pop	 edi
  0001e	5e		 pop	 esi

; 119  : 		}

  0001f	c9		 leave
  00020	c2 04 00	 ret	 4
?_Getctype@_Locinfo@std@@QBE?AU_Ctypevec@@XZ ENDP	; std::_Locinfo::_Getctype
_TEXT	ENDS
PUBLIC	??Bid@locale@std@@QAEIXZ			; std::locale::id::operator unsigned int
EXTRN	??1_Lockit@std@@QAE@XZ:PROC			; std::_Lockit::~_Lockit
EXTRN	?_Id_cnt@id@locale@std@@0HA:DWORD		; std::locale::id::_Id_cnt
EXTRN	??0_Lockit@std@@QAE@H@Z:PROC			; std::_Lockit::_Lockit
; Function compile flags: /Ogsp
; File c:\program files (x86)\microsoft visual studio 10.0\vc\include\xlocale
;	COMDAT ??Bid@locale@std@@QAEIXZ
_TEXT	SEGMENT
__Lock$15107 = -4					; size = 4
??Bid@locale@std@@QAEIXZ PROC				; std::locale::id::operator unsigned int, COMDAT
; _this$ = ecx

; 75   : 			{	// get stamp, with lazy allocation

  00000	55		 push	 ebp
  00001	8b ec		 mov	 ebp, esp
  00003	51		 push	 ecx
  00004	56		 push	 esi
  00005	8b f1		 mov	 esi, ecx

; 76   : 			if (_Id == 0)

  00007	83 3e 00	 cmp	 DWORD PTR [esi], 0
  0000a	75 24		 jne	 SHORT $LN2@operator

; 77   : 				{	// still zero, allocate stamp
; 78   : 				_BEGIN_LOCK(_LOCK_LOCALE)

  0000c	6a 00		 push	 0
  0000e	8d 4d fc	 lea	 ecx, DWORD PTR __Lock$15107[ebp]
  00011	e8 00 00 00 00	 call	 ??0_Lockit@std@@QAE@H@Z	; std::_Lockit::_Lockit

; 79   : 					if (_Id == 0)

  00016	83 3e 00	 cmp	 DWORD PTR [esi], 0
  00019	75 0d		 jne	 SHORT $LN1@operator

; 80   : 						_Id = ++_Id_cnt;

  0001b	ff 05 00 00 00
	00		 inc	 DWORD PTR ?_Id_cnt@id@locale@std@@0HA ; std::locale::id::_Id_cnt
  00021	a1 00 00 00 00	 mov	 eax, DWORD PTR ?_Id_cnt@id@locale@std@@0HA ; std::locale::id::_Id_cnt
  00026	89 06		 mov	 DWORD PTR [esi], eax
$LN1@operator:

; 81   : 				_END_LOCK()

  00028	8d 4d fc	 lea	 ecx, DWORD PTR __Lock$15107[ebp]
  0002b	e8 00 00 00 00	 call	 ??1_Lockit@std@@QAE@XZ	; std::_Lockit::~_Lockit
$LN2@operator:

; 82   : 				}
; 83   : 			return (_Id);

  00030	8b 06		 mov	 eax, DWORD PTR [esi]
  00032	5e		 pop	 esi

; 84   : 			}

  00033	c9		 leave
  00034	c3		 ret	 0
??Bid@locale@std@@QAEIXZ ENDP				; std::locale::id::operator unsigned int
_TEXT	ENDS
PUBLIC	?_Incref@facet@locale@std@@QAEXXZ		; std::locale::facet::_Incref
; Function compile flags: /Ogsp
;	COMDAT ?_Incref@facet@locale@std@@QAEXXZ
_TEXT	SEGMENT
__Lock$15113 = -4					; size = 4
?_Incref@facet@locale@std@@QAEXXZ PROC			; std::locale::facet::_Incref, COMDAT
; _this$ = ecx

; 111  : 			{	// safely increment the reference count

  00000	55		 push	 ebp
  00001	8b ec		 mov	 ebp, esp
  00003	51		 push	 ecx
  00004	56		 push	 esi
  00005	8b f1		 mov	 esi, ecx

; 112  : 			_BEGIN_LOCK(_LOCK_LOCALE)

  00007	6a 00		 push	 0
  00009	8d 4d fc	 lea	 ecx, DWORD PTR __Lock$15113[ebp]
  0000c	e8 00 00 00 00	 call	 ??0_Lockit@std@@QAE@H@Z	; std::_Lockit::_Lockit

; 113  : 				if (_Refs < (size_t)(-1))

  00011	8b 46 04	 mov	 eax, DWORD PTR [esi+4]
  00014	83 f8 ff	 cmp	 eax, -1
  00017	73 04		 jae	 SHORT $LN1@Incref

; 114  : 					++_Refs;

  00019	40		 inc	 eax
  0001a	89 46 04	 mov	 DWORD PTR [esi+4], eax
$LN1@Incref:

; 115  : 			_END_LOCK()

  0001d	8d 4d fc	 lea	 ecx, DWORD PTR __Lock$15113[ebp]
  00020	e8 00 00 00 00	 call	 ??1_Lockit@std@@QAE@XZ	; std::_Lockit::~_Lockit
  00025	5e		 pop	 esi

; 116  : 			}

  00026	c9		 leave
  00027	c3		 ret	 0
?_Incref@facet@locale@std@@QAEXXZ ENDP			; std::locale::facet::_Incref
_TEXT	ENDS
PUBLIC	?_Decref@facet@locale@std@@QAEPAV123@XZ		; std::locale::facet::_Decref
; Function compile flags: /Ogsp
;	COMDAT ?_Decref@facet@locale@std@@QAEPAV123@XZ
_TEXT	SEGMENT
__Lock$15118 = -4					; size = 4
?_Decref@facet@locale@std@@QAEPAV123@XZ PROC		; std::locale::facet::_Decref, COMDAT
; _this$ = ecx

; 119  : 			{	// safely decrement the reference count, return this when dead

  00000	55		 push	 ebp
  00001	8b ec		 mov	 ebp, esp
  00003	51		 push	 ecx
  00004	56		 push	 esi
  00005	57		 push	 edi
  00006	8b f9		 mov	 edi, ecx

; 120  : 			_BEGIN_LOCK(_LOCK_LOCALE)

  00008	6a 00		 push	 0
  0000a	8d 4d fc	 lea	 ecx, DWORD PTR __Lock$15118[ebp]
  0000d	e8 00 00 00 00	 call	 ??0_Lockit@std@@QAE@H@Z	; std::_Lockit::_Lockit

; 121  : 				if (0 < _Refs && _Refs < (size_t)(-1))

  00012	8b 47 04	 mov	 eax, DWORD PTR [edi+4]
  00015	85 c0		 test	 eax, eax
  00017	74 09		 je	 SHORT $LN1@Decref
  00019	83 f8 ff	 cmp	 eax, -1
  0001c	73 04		 jae	 SHORT $LN1@Decref

; 122  : 					--_Refs;

  0001e	48		 dec	 eax
  0001f	89 47 04	 mov	 DWORD PTR [edi+4], eax
$LN1@Decref:

; 123  : 				return (_Refs == 0 ? this : 0);

  00022	8b 77 04	 mov	 esi, DWORD PTR [edi+4]
  00025	f7 de		 neg	 esi
  00027	1b f6		 sbb	 esi, esi
  00029	f7 d6		 not	 esi
  0002b	8d 4d fc	 lea	 ecx, DWORD PTR __Lock$15118[ebp]
  0002e	23 f7		 and	 esi, edi
  00030	e8 00 00 00 00	 call	 ??1_Lockit@std@@QAE@XZ	; std::_Lockit::~_Lockit
  00035	5f		 pop	 edi
  00036	8b c6		 mov	 eax, esi
  00038	5e		 pop	 esi

; 124  : 			_END_LOCK()
; 125  : 			}

  00039	c9		 leave
  0003a	c3		 ret	 0
?_Decref@facet@locale@std@@QAEPAV123@XZ ENDP		; std::locale::facet::_Decref
_TEXT	ENDS
PUBLIC	?_Register@facet@locale@std@@QAEXXZ		; std::locale::facet::_Register
EXTRN	?_Facet_Register@facet@locale@std@@CAXPAV123@@Z:PROC ; std::locale::facet::_Facet_Register
; Function compile flags: /Ogsp
;	COMDAT ?_Register@facet@locale@std@@QAEXXZ
_TEXT	SEGMENT
?_Register@facet@locale@std@@QAEXXZ PROC		; std::locale::facet::_Register, COMDAT
; _this$ = ecx

; 129  :  #if defined(_M_CEE)
; 130  : 			_Facet_Register_m(this);
; 131  : 
; 132  :  #else /* defined(_M_CEE) */
; 133  : 			_Facet_Register(this);

  00000	51		 push	 ecx
  00001	e8 00 00 00 00	 call	 ?_Facet_Register@facet@locale@std@@CAXPAV123@@Z ; std::locale::facet::_Facet_Register
  00006	59		 pop	 ecx

; 134  :  #endif /* defined(_M_CEE) */
; 135  : 			}

  00007	c3		 ret	 0
?_Register@facet@locale@std@@QAEXXZ ENDP		; std::locale::facet::_Register
_TEXT	ENDS
PUBLIC	??_7facet@locale@std@@6B@			; std::locale::facet::`vftable'
PUBLIC	??1facet@locale@std@@UAE@XZ			; std::locale::facet::~facet
PUBLIC	??_R4facet@locale@std@@6B@			; std::locale::facet::`RTTI Complete Object Locator'
PUBLIC	??_R0?AVfacet@locale@std@@@8			; std::locale::facet `RTTI Type Descriptor'
PUBLIC	??_R3facet@locale@std@@8			; std::locale::facet::`RTTI Class Hierarchy Descriptor'
PUBLIC	??_R2facet@locale@std@@8			; std::locale::facet::`RTTI Base Class Array'
PUBLIC	??_R1A@?0A@EA@facet@locale@std@@8		; std::locale::facet::`RTTI Base Class Descriptor at (0,-1,0,64)'
EXTRN	??_Efacet@locale@std@@UAEPAXI@Z:PROC		; std::locale::facet::`vector deleting destructor'
;	COMDAT ??_R1A@?0A@EA@facet@locale@std@@8
rdata$r	SEGMENT
??_R1A@?0A@EA@facet@locale@std@@8 DD FLAT:??_R0?AVfacet@locale@std@@@8 ; std::locale::facet::`RTTI Base Class Descriptor at (0,-1,0,64)'
	DD	00H
	DD	00H
	DD	0ffffffffH
	DD	00H
	DD	040H
	DD	FLAT:??_R3facet@locale@std@@8
rdata$r	ENDS
;	COMDAT ??_R2facet@locale@std@@8
rdata$r	SEGMENT
??_R2facet@locale@std@@8 DD FLAT:??_R1A@?0A@EA@facet@locale@std@@8 ; std::locale::facet::`RTTI Base Class Array'
rdata$r	ENDS
;	COMDAT ??_R3facet@locale@std@@8
rdata$r	SEGMENT
??_R3facet@locale@std@@8 DD 00H				; std::locale::facet::`RTTI Class Hierarchy Descriptor'
	DD	00H
	DD	01H
	DD	FLAT:??_R2facet@locale@std@@8
rdata$r	ENDS
;	COMDAT ??_R0?AVfacet@locale@std@@@8
_DATA	SEGMENT
??_R0?AVfacet@locale@std@@@8 DD FLAT:??_7type_info@@6B@	; std::locale::facet `RTTI Type Descriptor'
	DD	00H
	DB	'.?AVfacet@locale@std@@', 00H
_DATA	ENDS
;	COMDAT ??_R4facet@locale@std@@6B@
rdata$r	SEGMENT
??_R4facet@locale@std@@6B@ DD 00H			; std::locale::facet::`RTTI Complete Object Locator'
	DD	00H
	DD	00H
	DD	FLAT:??_R0?AVfacet@locale@std@@@8
	DD	FLAT:??_R3facet@locale@std@@8
rdata$r	ENDS
;	COMDAT ??_7facet@locale@std@@6B@
CONST	SEGMENT
??_7facet@locale@std@@6B@ DD FLAT:??_R4facet@locale@std@@6B@ ; std::locale::facet::`vftable'
	DD	FLAT:??_Efacet@locale@std@@UAEPAXI@Z
; Function compile flags: /Ogsp
CONST	ENDS
;	COMDAT ??1facet@locale@std@@UAE@XZ
_TEXT	SEGMENT
??1facet@locale@std@@UAE@XZ PROC			; std::locale::facet::~facet, COMDAT
; _this$ = ecx

; 164  : 			{	// destroy the object

  00000	c7 01 00 00 00
	00		 mov	 DWORD PTR [ecx], OFFSET ??_7facet@locale@std@@6B@

; 165  : 			}

  00006	c3		 ret	 0
??1facet@locale@std@@UAE@XZ ENDP			; std::locale::facet::~facet
_TEXT	ENDS
PUBLIC	??0facet@locale@std@@IAE@I@Z			; std::locale::facet::facet
; Function compile flags: /Ogsp
;	COMDAT ??0facet@locale@std@@IAE@I@Z
_TEXT	SEGMENT
__Initrefs$ = 8						; size = 4
??0facet@locale@std@@IAE@I@Z PROC			; std::locale::facet::facet, COMDAT
; _this$ = ecx

; 170  : 			{	// construct with initial reference count

  00000	55		 push	 ebp
  00001	8b ec		 mov	 ebp, esp
  00003	8b c1		 mov	 eax, ecx
  00005	8b 4d 08	 mov	 ecx, DWORD PTR __Initrefs$[ebp]
  00008	c7 00 00 00 00
	00		 mov	 DWORD PTR [eax], OFFSET ??_7facet@locale@std@@6B@
  0000e	89 48 04	 mov	 DWORD PTR [eax+4], ecx

; 171  : 			}

  00011	5d		 pop	 ebp
  00012	c2 04 00	 ret	 4
??0facet@locale@std@@IAE@I@Z ENDP			; std::locale::facet::facet
_TEXT	ENDS
PUBLIC	??0locale@std@@QAE@ABV01@@Z			; std::locale::locale
; Function compile flags: /Ogsp
;	COMDAT ??0locale@std@@QAE@ABV01@@Z
_TEXT	SEGMENT
__Right$ = 8						; size = 4
??0locale@std@@QAE@ABV01@@Z PROC			; std::locale::locale, COMDAT
; _this$ = ecx

; 309  : 		{	// construct by copying

  00000	55		 push	 ebp
  00001	8b ec		 mov	 ebp, esp
  00003	8b 45 08	 mov	 eax, DWORD PTR __Right$[ebp]
  00006	56		 push	 esi
  00007	8b f1		 mov	 esi, ecx
  00009	8b 08		 mov	 ecx, DWORD PTR [eax]
  0000b	89 0e		 mov	 DWORD PTR [esi], ecx

; 310  : 		_Ptr->_Incref();

  0000d	e8 00 00 00 00	 call	 ?_Incref@facet@locale@std@@QAEXXZ ; std::locale::facet::_Incref

; 311  : 		}

  00012	8b c6		 mov	 eax, esi
  00014	5e		 pop	 esi
  00015	5d		 pop	 ebp
  00016	c2 04 00	 ret	 4
??0locale@std@@QAE@ABV01@@Z ENDP			; std::locale::locale
_TEXT	ENDS
PUBLIC	??1locale@std@@QAE@XZ				; std::locale::~locale
; Function compile flags: /Ogsp
;	COMDAT ??1locale@std@@QAE@XZ
_TEXT	SEGMENT
??1locale@std@@QAE@XZ PROC				; std::locale::~locale, COMDAT
; _this$ = ecx

; 410  : 		if (_Ptr != 0)

  00000	8b 09		 mov	 ecx, DWORD PTR [ecx]
  00002	85 c9		 test	 ecx, ecx
  00004	74 11		 je	 SHORT $LN4@locale

; 411  : 			_DELETE_CRT(_Ptr->_Decref());

  00006	e8 00 00 00 00	 call	 ?_Decref@facet@locale@std@@QAEPAV123@XZ ; std::locale::facet::_Decref
  0000b	85 c0		 test	 eax, eax
  0000d	74 08		 je	 SHORT $LN4@locale
  0000f	8b 10		 mov	 edx, DWORD PTR [eax]
  00011	6a 01		 push	 1
  00013	8b c8		 mov	 ecx, eax
  00015	ff 12		 call	 DWORD PTR [edx]
$LN4@locale:

; 412  : 		}

  00017	c3		 ret	 0
??1locale@std@@QAE@XZ ENDP				; std::locale::~locale
_TEXT	ENDS
PUBLIC	?_Getfacet@locale@std@@QBEPBVfacet@12@I@Z	; std::locale::_Getfacet
EXTRN	?_Getgloballocale@locale@std@@CAPAV_Locimp@12@XZ:PROC ; std::locale::_Getgloballocale
; Function compile flags: /Ogsp
;	COMDAT ?_Getfacet@locale@std@@QBEPBVfacet@12@I@Z
_TEXT	SEGMENT
__Id$ = 8						; size = 4
?_Getfacet@locale@std@@QBEPBVfacet@12@I@Z PROC		; std::locale::_Getfacet, COMDAT
; _this$ = ecx

; 436  : 		{	// look up a facet in locale object

  00000	55		 push	 ebp
  00001	8b ec		 mov	 ebp, esp

; 437  : 		const facet *_Facptr = _Id < _Ptr->_Facetcount
; 438  : 			? _Ptr->_Facetvec[_Id] : 0;	// null if id off end

  00003	8b 09		 mov	 ecx, DWORD PTR [ecx]
  00005	56		 push	 esi
  00006	8b 75 08	 mov	 esi, DWORD PTR __Id$[ebp]
  00009	3b 71 0c	 cmp	 esi, DWORD PTR [ecx+12]
  0000c	73 08		 jae	 SHORT $LN6@Getfacet
  0000e	8b 41 08	 mov	 eax, DWORD PTR [ecx+8]
  00011	8b 04 b0	 mov	 eax, DWORD PTR [eax+esi*4]
  00014	eb 02		 jmp	 SHORT $LN7@Getfacet
$LN6@Getfacet:
  00016	33 c0		 xor	 eax, eax
$LN7@Getfacet:

; 439  : 		if (_Facptr != 0 || !_Ptr->_Xparent)

  00018	85 c0		 test	 eax, eax
  0001a	75 19		 jne	 SHORT $LN1@Getfacet
  0001c	38 41 14	 cmp	 BYTE PTR [ecx+20], al
  0001f	74 14		 je	 SHORT $LN1@Getfacet

; 440  : 			return (_Facptr);	// found facet or not transparent
; 441  : 		else
; 442  : 			{	// look in current locale
; 443  : 			locale::_Locimp *_Ptr = _Getgloballocale();

  00021	e8 00 00 00 00	 call	 ?_Getgloballocale@locale@std@@CAPAV_Locimp@12@XZ ; std::locale::_Getgloballocale

; 444  : 			return (_Id < _Ptr->_Facetcount
; 445  : 				? _Ptr->_Facetvec[_Id]	// get from current locale
; 446  : 				: 0);	// no entry in current locale

  00026	3b 70 0c	 cmp	 esi, DWORD PTR [eax+12]
  00029	73 08		 jae	 SHORT $LN8@Getfacet
  0002b	8b 40 08	 mov	 eax, DWORD PTR [eax+8]
  0002e	8b 04 b0	 mov	 eax, DWORD PTR [eax+esi*4]
  00031	eb 02		 jmp	 SHORT $LN1@Getfacet
$LN8@Getfacet:
  00033	33 c0		 xor	 eax, eax
$LN1@Getfacet:
  00035	5e		 pop	 esi

; 447  : 			}
; 448  : 		}

  00036	5d		 pop	 ebp
  00037	c2 04 00	 ret	 4
?_Getfacet@locale@std@@QBEPBVfacet@12@I@Z ENDP		; std::locale::_Getfacet
; Function compile flags: /Ogsp
_TEXT	ENDS
;	COMDAT ??_Gfacet@locale@std@@UAEPAXI@Z
_TEXT	SEGMENT
___flags$ = 8						; size = 4
??_Gfacet@locale@std@@UAEPAXI@Z PROC			; std::locale::facet::`scalar deleting destructor', COMDAT
; _this$ = ecx
  00000	55		 push	 ebp
  00001	8b ec		 mov	 ebp, esp
  00003	f6 45 08 01	 test	 BYTE PTR ___flags$[ebp], 1
  00007	56		 push	 esi
  00008	8b f1		 mov	 esi, ecx
  0000a	c7 06 00 00 00
	00		 mov	 DWORD PTR [esi], OFFSET ??_7facet@locale@std@@6B@
  00010	74 07		 je	 SHORT $LN1@scalar@2
  00012	56		 push	 esi
  00013	e8 00 00 00 00	 call	 ??3@YAXPAX@Z		; operator delete
  00018	59		 pop	 ecx
$LN1@scalar@2:
  00019	8b c6		 mov	 eax, esi
  0001b	5e		 pop	 esi
  0001c	5d		 pop	 ebp
  0001d	c2 04 00	 ret	 4
??_Gfacet@locale@std@@UAEPAXI@Z ENDP			; std::locale::facet::`scalar deleting destructor'
_TEXT	ENDS
PUBLIC	??_7ctype_base@std@@6B@				; std::ctype_base::`vftable'
PUBLIC	??0ctype_base@std@@QAE@I@Z			; std::ctype_base::ctype_base
PUBLIC	??_R4ctype_base@std@@6B@			; std::ctype_base::`RTTI Complete Object Locator'
PUBLIC	??_R0?AUctype_base@std@@@8			; std::ctype_base `RTTI Type Descriptor'
PUBLIC	??_R3ctype_base@std@@8				; std::ctype_base::`RTTI Class Hierarchy Descriptor'
PUBLIC	??_R2ctype_base@std@@8				; std::ctype_base::`RTTI Base Class Array'
PUBLIC	??_R1A@?0A@EA@ctype_base@std@@8			; std::ctype_base::`RTTI Base Class Descriptor at (0,-1,0,64)'
EXTRN	??_Ectype_base@std@@UAEPAXI@Z:PROC		; std::ctype_base::`vector deleting destructor'
;	COMDAT ??_R1A@?0A@EA@ctype_base@std@@8
rdata$r	SEGMENT
??_R1A@?0A@EA@ctype_base@std@@8 DD FLAT:??_R0?AUctype_base@std@@@8 ; std::ctype_base::`RTTI Base Class Descriptor at (0,-1,0,64)'
	DD	01H
	DD	00H
	DD	0ffffffffH
	DD	00H
	DD	040H
	DD	FLAT:??_R3ctype_base@std@@8
rdata$r	ENDS
;	COMDAT ??_R2ctype_base@std@@8
rdata$r	SEGMENT
??_R2ctype_base@std@@8 DD FLAT:??_R1A@?0A@EA@ctype_base@std@@8 ; std::ctype_base::`RTTI Base Class Array'
	DD	FLAT:??_R1A@?0A@EA@facet@locale@std@@8
rdata$r	ENDS
;	COMDAT ??_R3ctype_base@std@@8
rdata$r	SEGMENT
??_R3ctype_base@std@@8 DD 00H				; std::ctype_base::`RTTI Class Hierarchy Descriptor'
	DD	00H
	DD	02H
	DD	FLAT:??_R2ctype_base@std@@8
rdata$r	ENDS
;	COMDAT ??_R0?AUctype_base@std@@@8
_DATA	SEGMENT
??_R0?AUctype_base@std@@@8 DD FLAT:??_7type_info@@6B@	; std::ctype_base `RTTI Type Descriptor'
	DD	00H
	DB	'.?AUctype_base@std@@', 00H
_DATA	ENDS
;	COMDAT ??_R4ctype_base@std@@6B@
rdata$r	SEGMENT
??_R4ctype_base@std@@6B@ DD 00H				; std::ctype_base::`RTTI Complete Object Locator'
	DD	00H
	DD	00H
	DD	FLAT:??_R0?AUctype_base@std@@@8
	DD	FLAT:??_R3ctype_base@std@@8
rdata$r	ENDS
;	COMDAT ??_7ctype_base@std@@6B@
CONST	SEGMENT
??_7ctype_base@std@@6B@ DD FLAT:??_R4ctype_base@std@@6B@ ; std::ctype_base::`vftable'
	DD	FLAT:??_Ectype_base@std@@UAEPAXI@Z
; Function compile flags: /Ogsp
CONST	ENDS
;	COMDAT ??0ctype_base@std@@QAE@I@Z
_TEXT	SEGMENT
__Refs$ = 8						; size = 4
??0ctype_base@std@@QAE@I@Z PROC				; std::ctype_base::ctype_base, COMDAT
; _this$ = ecx

; 2011 : 		{	// default constructor

  00000	55		 push	 ebp
  00001	8b ec		 mov	 ebp, esp
  00003	8b c1		 mov	 eax, ecx
  00005	8b 4d 08	 mov	 ecx, DWORD PTR __Refs$[ebp]
  00008	89 48 04	 mov	 DWORD PTR [eax+4], ecx
  0000b	c7 00 00 00 00
	00		 mov	 DWORD PTR [eax], OFFSET ??_7ctype_base@std@@6B@

; 2012 : 		}

  00011	5d		 pop	 ebp
  00012	c2 04 00	 ret	 4
??0ctype_base@std@@QAE@I@Z ENDP				; std::ctype_base::ctype_base
_TEXT	ENDS
PUBLIC	??1ctype_base@std@@UAE@XZ			; std::ctype_base::~ctype_base
; Function compile flags: /Ogsp
;	COMDAT ??1ctype_base@std@@UAE@XZ
_TEXT	SEGMENT
??1ctype_base@std@@UAE@XZ PROC				; std::ctype_base::~ctype_base, COMDAT
; _this$ = ecx

; 2016 : 		}

  00000	c7 01 00 00 00
	00		 mov	 DWORD PTR [ecx], OFFSET ??_7facet@locale@std@@6B@
  00006	c3		 ret	 0
??1ctype_base@std@@UAE@XZ ENDP				; std::ctype_base::~ctype_base
; Function compile flags: /Ogsp
_TEXT	ENDS
;	COMDAT ??_Gctype_base@std@@UAEPAXI@Z
_TEXT	SEGMENT
___flags$ = 8						; size = 4
??_Gctype_base@std@@UAEPAXI@Z PROC			; std::ctype_base::`scalar deleting destructor', COMDAT
; _this$ = ecx
  00000	55		 push	 ebp
  00001	8b ec		 mov	 ebp, esp
  00003	f6 45 08 01	 test	 BYTE PTR ___flags$[ebp], 1
  00007	56		 push	 esi
  00008	8b f1		 mov	 esi, ecx
  0000a	c7 06 00 00 00
	00		 mov	 DWORD PTR [esi], OFFSET ??_7facet@locale@std@@6B@
  00010	74 07		 je	 SHORT $LN1@scalar@3
  00012	56		 push	 esi
  00013	e8 00 00 00 00	 call	 ??3@YAXPAX@Z		; operator delete
  00018	59		 pop	 ecx
$LN1@scalar@3:
  00019	8b c6		 mov	 eax, esi
  0001b	5e		 pop	 esi
  0001c	5d		 pop	 ebp
  0001d	c2 04 00	 ret	 4
??_Gctype_base@std@@UAEPAXI@Z ENDP			; std::ctype_base::`scalar deleting destructor'
_TEXT	ENDS
PUBLIC	?is@?$ctype@D@std@@QBE_NFD@Z			; std::ctype<char>::is
; Function compile flags: /Ogsp
;	COMDAT ?is@?$ctype@D@std@@QBE_NFD@Z
_TEXT	SEGMENT
__Maskval$ = 8						; size = 2
__Ch$ = 12						; size = 1
?is@?$ctype@D@std@@QBE_NFD@Z PROC			; std::ctype<char>::is, COMDAT
; _this$ = ecx

; 2271 : 		{	// test if element fits any mask classifications

  00000	55		 push	 ebp
  00001	8b ec		 mov	 ebp, esp

; 2272 : 		return ((_Ctype._Table[(unsigned char)_Ch] & _Maskval) != 0);

  00003	0f b6 45 0c	 movzx	 eax, BYTE PTR __Ch$[ebp]
  00007	8b 49 10	 mov	 ecx, DWORD PTR [ecx+16]
  0000a	66 8b 55 08	 mov	 dx, WORD PTR __Maskval$[ebp]
  0000e	66 85 14 41	 test	 WORD PTR [ecx+eax*2], dx
  00012	6a 00		 push	 0
  00014	58		 pop	 eax
  00015	0f 95 c0	 setne	 al

; 2273 : 		}

  00018	5d		 pop	 ebp
  00019	c2 08 00	 ret	 8
?is@?$ctype@D@std@@QBE_NFD@Z ENDP			; std::ctype<char>::is
_TEXT	ENDS
PUBLIC	?_Init@?$ctype@D@std@@IAEXABV_Locinfo@2@@Z	; std::ctype<char>::_Init
; Function compile flags: /Ogsp
;	COMDAT ?_Init@?$ctype@D@std@@IAEXABV_Locinfo@2@@Z
_TEXT	SEGMENT
$T40929 = -16						; size = 16
__Lobj$ = 8						; size = 4
?_Init@?$ctype@D@std@@IAEXABV_Locinfo@2@@Z PROC		; std::ctype<char>::_Init, COMDAT
; _this$ = ecx

; 2399 : 		{	// initialize from _Lobj

  00000	55		 push	 ebp
  00001	8b ec		 mov	 ebp, esp
  00003	83 ec 10	 sub	 esp, 16			; 00000010H
  00006	56		 push	 esi
  00007	57		 push	 edi

; 2400 : 		_Ctype = _Lobj._Getctype();

  00008	8d 45 f0	 lea	 eax, DWORD PTR $T40929[ebp]
  0000b	50		 push	 eax
  0000c	8b f9		 mov	 edi, ecx
  0000e	e8 00 00 00 00	 call	 __Getctype
  00013	83 c7 08	 add	 edi, 8
  00016	8b f0		 mov	 esi, eax
  00018	a5		 movsd
  00019	a5		 movsd
  0001a	a5		 movsd
  0001b	59		 pop	 ecx
  0001c	a5		 movsd
  0001d	5f		 pop	 edi
  0001e	5e		 pop	 esi

; 2401 : 		}

  0001f	c9		 leave
  00020	c2 04 00	 ret	 4
?_Init@?$ctype@D@std@@IAEXABV_Locinfo@2@@Z ENDP		; std::ctype<char>::_Init
_TEXT	ENDS
PUBLIC	??0error_code@std@@QAE@HABVerror_category@1@@Z	; std::error_code::error_code
; Function compile flags: /Ogsp
; File c:\program files (x86)\microsoft visual studio 10.0\vc\include\system_error
;	COMDAT ??0error_code@std@@QAE@HABVerror_category@1@@Z
_TEXT	SEGMENT
__Val$ = 8						; size = 4
__Cat$ = 12						; size = 4
??0error_code@std@@QAE@HABVerror_category@1@@Z PROC	; std::error_code::error_code, COMDAT
; _this$ = ecx

; 204  : 		{	// construct from error code and category

  00000	55		 push	 ebp
  00001	8b ec		 mov	 ebp, esp
  00003	8b c1		 mov	 eax, ecx
  00005	8b 4d 08	 mov	 ecx, DWORD PTR __Val$[ebp]
  00008	89 08		 mov	 DWORD PTR [eax], ecx
  0000a	8b 4d 0c	 mov	 ecx, DWORD PTR __Cat$[ebp]
  0000d	89 48 04	 mov	 DWORD PTR [eax+4], ecx

; 205  : 		}

  00010	5d		 pop	 ebp
  00011	c2 08 00	 ret	 8
??0error_code@std@@QAE@HABVerror_category@1@@Z ENDP	; std::error_code::error_code
_TEXT	ENDS
PUBLIC	?make_error_code@std@@YA?AVerror_code@1@W4io_errc@31@@Z ; std::make_error_code
EXTRN	?iostream_category@std@@YAABVerror_category@1@XZ:PROC ; std::iostream_category
; Function compile flags: /Ogsp
;	COMDAT ?make_error_code@std@@YA?AVerror_code@1@W4io_errc@31@@Z
_TEXT	SEGMENT
___$ReturnUdt$ = 8					; size = 4
__Errno$ = 12						; size = 4
?make_error_code@std@@YA?AVerror_code@1@W4io_errc@31@@Z PROC ; std::make_error_code, COMDAT

; 446  : 	{	// make an error_code

  00000	55		 push	 ebp
  00001	8b ec		 mov	 ebp, esp

; 447  : 	return (error_code(_Errno, iostream_category()));

  00003	e8 00 00 00 00	 call	 ?iostream_category@std@@YAABVerror_category@1@XZ ; std::iostream_category
  00008	8b 55 0c	 mov	 edx, DWORD PTR __Errno$[ebp]
  0000b	8b c8		 mov	 ecx, eax
  0000d	8b 45 08	 mov	 eax, DWORD PTR ___$ReturnUdt$[ebp]
  00010	89 10		 mov	 DWORD PTR [eax], edx
  00012	89 48 04	 mov	 DWORD PTR [eax+4], ecx

; 448  : 	}

  00015	5d		 pop	 ebp
  00016	c3		 ret	 0
?make_error_code@std@@YA?AVerror_code@1@W4io_errc@31@@Z ENDP ; std::make_error_code
_TEXT	ENDS
PUBLIC	?_Makestr@system_error@std@@AAEXXZ		; std::system_error::_Makestr
; Function compile flags: /Ogsp
;	COMDAT ?_Makestr@system_error@std@@AAEXXZ
_TEXT	SEGMENT
?_Makestr@system_error@std@@AAEXXZ PROC			; std::system_error::_Makestr, COMDAT
; _this$ = ecx

; 563  : //		_Mymes = this->runtime_error::what();
; 564  : //		if (!_Mymes.empty())
; 565  : //			_Mymes.append(": ");
; 566  : //		_Mymes.append(_Mycode.message());
; 567  : 		}

  00000	c3		 ret	 0
?_Makestr@system_error@std@@AAEXXZ ENDP			; std::system_error::_Makestr
_TEXT	ENDS
PUBLIC	??1system_error@std@@UAE@XZ			; std::system_error::~system_error
; Function compile flags: /Ogsp
;	COMDAT ??1system_error@std@@UAE@XZ
_TEXT	SEGMENT
??1system_error@std@@UAE@XZ PROC			; std::system_error::~system_error, COMDAT
; _this$ = ecx
  00000	e9 00 00 00 00	 jmp	 ??1exception@std@@UAE@XZ ; std::exception::~exception
??1system_error@std@@UAE@XZ ENDP			; std::system_error::~system_error
_TEXT	ENDS
PUBLIC	?rdstate@ios_base@std@@QBEHXZ			; std::ios_base::rdstate
; Function compile flags: /Ogsp
; File c:\program files (x86)\microsoft visual studio 10.0\vc\include\xiosbase
;	COMDAT ?rdstate@ios_base@std@@QBEHXZ
_TEXT	SEGMENT
?rdstate@ios_base@std@@QBEHXZ PROC			; std::ios_base::rdstate, COMDAT
; _this$ = ecx

; 336  : 		return (_Mystate);

  00000	8b 41 0c	 mov	 eax, DWORD PTR [ecx+12]

; 337  : 		}

  00003	c3		 ret	 0
?rdstate@ios_base@std@@QBEHXZ ENDP			; std::ios_base::rdstate
_TEXT	ENDS
PUBLIC	?good@ios_base@std@@QBE_NXZ			; std::ios_base::good
; Function compile flags: /Ogsp
;	COMDAT ?good@ios_base@std@@QBE_NXZ
_TEXT	SEGMENT
?good@ios_base@std@@QBE_NXZ PROC			; std::ios_base::good, COMDAT
; _this$ = ecx

; 358  : 		return (rdstate() == goodbit);

  00000	33 c0		 xor	 eax, eax
  00002	39 41 0c	 cmp	 DWORD PTR [ecx+12], eax
  00005	0f 94 c0	 sete	 al

; 359  : 		}

  00008	c3		 ret	 0
?good@ios_base@std@@QBE_NXZ ENDP			; std::ios_base::good
_TEXT	ENDS
PUBLIC	?fail@ios_base@std@@QBE_NXZ			; std::ios_base::fail
; Function compile flags: /Ogsp
;	COMDAT ?fail@ios_base@std@@QBE_NXZ
_TEXT	SEGMENT
?fail@ios_base@std@@QBE_NXZ PROC			; std::ios_base::fail, COMDAT
; _this$ = ecx

; 368  : 		return (((int)rdstate()
; 369  : 			& ((int)badbit | (int)failbit)) != 0);

  00000	f6 41 0c 06	 test	 BYTE PTR [ecx+12], 6
  00004	6a 00		 push	 0
  00006	58		 pop	 eax
  00007	0f 95 c0	 setne	 al

; 370  : 		}

  0000a	c3		 ret	 0
?fail@ios_base@std@@QBE_NXZ ENDP			; std::ios_base::fail
_TEXT	ENDS
PUBLIC	?flags@ios_base@std@@QBEHXZ			; std::ios_base::flags
; Function compile flags: /Ogsp
;	COMDAT ?flags@ios_base@std@@QBEHXZ
_TEXT	SEGMENT
?flags@ios_base@std@@QBEHXZ PROC			; std::ios_base::flags, COMDAT
; _this$ = ecx

; 395  : 		return (_Fmtfl);

  00000	8b 41 14	 mov	 eax, DWORD PTR [ecx+20]

; 396  : 		}

  00003	c3		 ret	 0
?flags@ios_base@std@@QBEHXZ ENDP			; std::ios_base::flags
_TEXT	ENDS
PUBLIC	?getloc@ios_base@std@@QBE?AVlocale@2@XZ		; std::ios_base::getloc
; Function compile flags: /Ogsp
;	COMDAT ?getloc@ios_base@std@@QBE?AVlocale@2@XZ
_TEXT	SEGMENT
$T40973 = -4						; size = 4
___$ReturnUdt$ = 8					; size = 4
?getloc@ios_base@std@@QBE?AVlocale@2@XZ PROC		; std::ios_base::getloc, COMDAT
; _this$ = ecx

; 451  : 		{	// get locale

  00000	55		 push	 ebp
  00001	8b ec		 mov	 ebp, esp
  00003	51		 push	 ecx

; 452  : 		return (*_Ploc);

  00004	8b 41 30	 mov	 eax, DWORD PTR [ecx+48]
  00007	8b 08		 mov	 ecx, DWORD PTR [eax]
  00009	83 65 fc 00	 and	 DWORD PTR $T40973[ebp], 0
  0000d	56		 push	 esi
  0000e	8b 75 08	 mov	 esi, DWORD PTR ___$ReturnUdt$[ebp]
  00011	89 0e		 mov	 DWORD PTR [esi], ecx
  00013	e8 00 00 00 00	 call	 ?_Incref@facet@locale@std@@QAEXXZ ; std::locale::facet::_Incref
  00018	8b c6		 mov	 eax, esi
  0001a	5e		 pop	 esi

; 453  : 		}

  0001b	c9		 leave
  0001c	c2 04 00	 ret	 4
?getloc@ios_base@std@@QBE?AVlocale@2@XZ ENDP		; std::ios_base::getloc
_TEXT	ENDS
PUBLIC	??0Features@Json@@QAE@XZ			; Json::Features::Features
; Function compile flags: /Ogsp
; File f:\projects\git\yfnet\trunk\src\include\json\json_reader.cpp
;	COMDAT ??0Features@Json@@QAE@XZ
_TEXT	SEGMENT
??0Features@Json@@QAE@XZ PROC				; Json::Features::Features, COMDAT
; _this$ = ecx

; 22   : {

  00000	8b c1		 mov	 eax, ecx
  00002	66 c7 00 01 00	 mov	 WORD PTR [eax], 1

; 23   : }

  00007	c3		 ret	 0
??0Features@Json@@QAE@XZ ENDP				; Json::Features::Features
_TEXT	ENDS
PUBLIC	?all@Features@Json@@SA?AV12@XZ			; Json::Features::all
; Function compile flags: /Ogsp
;	COMDAT ?all@Features@Json@@SA?AV12@XZ
_TEXT	SEGMENT
___$ReturnUdt$ = 8					; size = 4
?all@Features@Json@@SA?AV12@XZ PROC			; Json::Features::all, COMDAT

; 28   : {

  00000	55		 push	 ebp
  00001	8b ec		 mov	 ebp, esp

; 29   :    return Features();

  00003	8b 45 08	 mov	 eax, DWORD PTR ___$ReturnUdt$[ebp]
  00006	66 c7 00 01 00	 mov	 WORD PTR [eax], 1

; 30   : }

  0000b	5d		 pop	 ebp
  0000c	c3		 ret	 0
?all@Features@Json@@SA?AV12@XZ ENDP			; Json::Features::all
_TEXT	ENDS
PUBLIC	?strictMode@Features@Json@@SA?AV12@XZ		; Json::Features::strictMode
; Function compile flags: /Ogsp
;	COMDAT ?strictMode@Features@Json@@SA?AV12@XZ
_TEXT	SEGMENT
___$ReturnUdt$ = 8					; size = 4
?strictMode@Features@Json@@SA?AV12@XZ PROC		; Json::Features::strictMode, COMDAT

; 35   : {

  00000	55		 push	 ebp
  00001	8b ec		 mov	 ebp, esp

; 36   :    Features features;
; 37   :    features.allowComments_ = false;

  00003	8b 45 08	 mov	 eax, DWORD PTR ___$ReturnUdt$[ebp]
  00006	66 c7 00 00 01	 mov	 WORD PTR [eax], 256	; 00000100H

; 38   :    features.strictRoot_ = true;
; 39   :    return features;
; 40   : }

  0000b	5d		 pop	 ebp
  0000c	c3		 ret	 0
?strictMode@Features@Json@@SA?AV12@XZ ENDP		; Json::Features::strictMode
; Function compile flags: /Ogsp
_TEXT	ENDS
;	COMDAT ?in@Json@@YA_NDDDDD@Z
_TEXT	SEGMENT
_c1$ = 8						; size = 1
_c2$ = 12						; size = 1
_c3$ = 16						; size = 1
_c4$ = 20						; size = 1
?in@Json@@YA_NDDDDD@Z PROC				; Json::in, COMDAT
; _c$ = eax

; 48   : {

  00000	55		 push	 ebp
  00001	8b ec		 mov	 ebp, esp

; 49   :    return c == c1  ||  c == c2  ||  c == c3  ||  c == c4;

  00003	3a 45 08	 cmp	 al, BYTE PTR _c1$[ebp]
  00006	74 13		 je	 SHORT $LN3@in
  00008	3a 45 0c	 cmp	 al, BYTE PTR _c2$[ebp]
  0000b	74 0e		 je	 SHORT $LN3@in
  0000d	3a 45 10	 cmp	 al, BYTE PTR _c3$[ebp]
  00010	74 09		 je	 SHORT $LN3@in
  00012	3a 45 14	 cmp	 al, BYTE PTR _c4$[ebp]
  00015	74 04		 je	 SHORT $LN3@in
  00017	33 c0		 xor	 eax, eax

; 50   : }

  00019	5d		 pop	 ebp
  0001a	c3		 ret	 0
$LN3@in:

; 49   :    return c == c1  ||  c == c2  ||  c == c3  ||  c == c4;

  0001b	33 c0		 xor	 eax, eax
  0001d	40		 inc	 eax

; 50   : }

  0001e	5d		 pop	 ebp
  0001f	c3		 ret	 0
?in@Json@@YA_NDDDDD@Z ENDP				; Json::in
; Function compile flags: /Ogsp
_TEXT	ENDS
;	COMDAT ?in@Json@@YA_NDDDDDD@Z
_TEXT	SEGMENT
_c1$ = 8						; size = 1
_c2$ = 12						; size = 1
_c3$ = 16						; size = 1
_c4$ = 20						; size = 1
_c5$ = 24						; size = 1
?in@Json@@YA_NDDDDDD@Z PROC				; Json::in, COMDAT
; _c$ = eax

; 54   : {

  00000	55		 push	 ebp
  00001	8b ec		 mov	 ebp, esp

; 55   :    return c == c1  ||  c == c2  ||  c == c3  ||  c == c4  ||  c == c5;

  00003	3a 45 08	 cmp	 al, BYTE PTR _c1$[ebp]
  00006	74 18		 je	 SHORT $LN3@in@2
  00008	3a 45 0c	 cmp	 al, BYTE PTR _c2$[ebp]
  0000b	74 13		 je	 SHORT $LN3@in@2
  0000d	3a 45 10	 cmp	 al, BYTE PTR _c3$[ebp]
  00010	74 0e		 je	 SHORT $LN3@in@2
  00012	3a 45 14	 cmp	 al, BYTE PTR _c4$[ebp]
  00015	74 09		 je	 SHORT $LN3@in@2
  00017	3a 45 18	 cmp	 al, BYTE PTR _c5$[ebp]
  0001a	74 04		 je	 SHORT $LN3@in@2
  0001c	33 c0		 xor	 eax, eax

; 56   : }

  0001e	5d		 pop	 ebp
  0001f	c3		 ret	 0
$LN3@in@2:

; 55   :    return c == c1  ||  c == c2  ||  c == c3  ||  c == c4  ||  c == c5;

  00020	33 c0		 xor	 eax, eax
  00022	40		 inc	 eax

; 56   : }

  00023	5d		 pop	 ebp
  00024	c3		 ret	 0
?in@Json@@YA_NDDDDDD@Z ENDP				; Json::in
; Function compile flags: /Ogsp
_TEXT	ENDS
;	COMDAT ?containsNewLine@Json@@YA_NPBD0@Z
_TEXT	SEGMENT
_end$ = 8						; size = 4
?containsNewLine@Json@@YA_NPBD0@Z PROC			; Json::containsNewLine, COMDAT
; _begin$ = eax

; 62   : {

  00000	55		 push	 ebp
  00001	8b ec		 mov	 ebp, esp

; 63   :    for ( ;begin < end; ++begin )

  00003	eb 0d		 jmp	 SHORT $LN11@containsNe
$LL5@containsNe:

; 64   :       if ( *begin == '\n'  ||  *begin == '\r' )

  00005	8a 08		 mov	 cl, BYTE PTR [eax]
  00007	80 f9 0a	 cmp	 cl, 10			; 0000000aH
  0000a	74 0f		 je	 SHORT $LN9@containsNe
  0000c	80 f9 0d	 cmp	 cl, 13			; 0000000dH
  0000f	74 0a		 je	 SHORT $LN9@containsNe

; 63   :    for ( ;begin < end; ++begin )

  00011	40		 inc	 eax
$LN11@containsNe:
  00012	3b 45 08	 cmp	 eax, DWORD PTR _end$[ebp]
  00015	72 ee		 jb	 SHORT $LL5@containsNe

; 66   :    return false;

  00017	32 c0		 xor	 al, al

; 67   : }

  00019	5d		 pop	 ebp
  0001a	c3		 ret	 0
$LN9@containsNe:

; 65   :          return true;

  0001b	b0 01		 mov	 al, 1

; 67   : }

  0001d	5d		 pop	 ebp
  0001e	c3		 ret	 0
?containsNewLine@Json@@YA_NPBD0@Z ENDP			; Json::containsNewLine
_TEXT	ENDS
PUBLIC	?skipSpaces@Reader@Json@@AAEXXZ			; Json::Reader::skipSpaces
; Function compile flags: /Ogsp
;	COMDAT ?skipSpaces@Reader@Json@@AAEXXZ
_TEXT	SEGMENT
?skipSpaces@Reader@Json@@AAEXXZ PROC			; Json::Reader::skipSpaces, COMDAT
; _this$ = ecx

; 351  :    while ( current_ != end_ )

  00000	eb 1d		 jmp	 SHORT $LN10@skipSpaces
$LL5@skipSpaces:

; 352  :    {
; 353  :       Char c = *current_;

  00002	8b 41 54	 mov	 eax, DWORD PTR [ecx+84]
  00005	8a 10		 mov	 dl, BYTE PTR [eax]

; 354  :       if ( c == ' '  ||  c == '\t'  ||  c == '\r'  ||  c == '\n' )

  00007	80 fa 20	 cmp	 dl, 32			; 00000020H
  0000a	74 0f		 je	 SHORT $LN2@skipSpaces
  0000c	80 fa 09	 cmp	 dl, 9
  0000f	74 0a		 je	 SHORT $LN2@skipSpaces
  00011	80 fa 0d	 cmp	 dl, 13			; 0000000dH
  00014	74 05		 je	 SHORT $LN2@skipSpaces
  00016	80 fa 0a	 cmp	 dl, 10			; 0000000aH
  00019	75 0c		 jne	 SHORT $LN3@skipSpaces
$LN2@skipSpaces:

; 355  :          ++current_;

  0001b	40		 inc	 eax
  0001c	89 41 54	 mov	 DWORD PTR [ecx+84], eax
$LN10@skipSpaces:

; 351  :    while ( current_ != end_ )

  0001f	8b 41 54	 mov	 eax, DWORD PTR [ecx+84]
  00022	3b 41 50	 cmp	 eax, DWORD PTR [ecx+80]
  00025	75 db		 jne	 SHORT $LL5@skipSpaces
$LN3@skipSpaces:

; 356  :       else
; 357  :          break;
; 358  :    }
; 359  : }

  00027	c3		 ret	 0
?skipSpaces@Reader@Json@@AAEXXZ ENDP			; Json::Reader::skipSpaces
_TEXT	ENDS
PUBLIC	?match@Reader@Json@@AAE_NPBDH@Z			; Json::Reader::match
; Function compile flags: /Ogsp
;	COMDAT ?match@Reader@Json@@AAE_NPBDH@Z
_TEXT	SEGMENT
_pattern$ = 8						; size = 4
_patternLength$ = 12					; size = 4
?match@Reader@Json@@AAE_NPBDH@Z PROC			; Json::Reader::match, COMDAT
; _this$ = ecx

; 365  : {

  00000	55		 push	 ebp
  00001	8b ec		 mov	 ebp, esp
  00003	56		 push	 esi
  00004	8b f1		 mov	 esi, ecx

; 366  :    if ( end_ - current_ < patternLength )

  00006	8b 56 54	 mov	 edx, DWORD PTR [esi+84]
  00009	8b 46 50	 mov	 eax, DWORD PTR [esi+80]
  0000c	57		 push	 edi
  0000d	8b 7d 0c	 mov	 edi, DWORD PTR _patternLength$[ebp]
  00010	2b c2		 sub	 eax, edx
  00012	3b c7		 cmp	 eax, edi
  00014	7d 04		 jge	 SHORT $LN4@match

; 367  :       return false;

  00016	32 c0		 xor	 al, al
  00018	eb 1f		 jmp	 SHORT $LN5@match
$LN4@match:
  0001a	53		 push	 ebx

; 368  :    int index = patternLength;

  0001b	8b c7		 mov	 eax, edi

; 369  :    while ( index-- )

  0001d	85 ff		 test	 edi, edi
  0001f	74 10		 je	 SHORT $LN9@match
$LL3@match:

; 370  :       if ( current_[index] != pattern[index] )

  00021	8b 5d 08	 mov	 ebx, DWORD PTR _pattern$[ebp]
  00024	48		 dec	 eax
  00025	8a 0c 02	 mov	 cl, BYTE PTR [edx+eax]
  00028	3a 0c 18	 cmp	 cl, BYTE PTR [eax+ebx]
  0002b	75 12		 jne	 SHORT $LN8@match

; 369  :    while ( index-- )

  0002d	85 c0		 test	 eax, eax
  0002f	75 f0		 jne	 SHORT $LL3@match
$LN9@match:

; 372  :    current_ += patternLength;

  00031	03 d7		 add	 edx, edi
  00033	89 56 54	 mov	 DWORD PTR [esi+84], edx

; 373  :    return true;

  00036	b0 01		 mov	 al, 1
$LN10@match:
  00038	5b		 pop	 ebx
$LN5@match:
  00039	5f		 pop	 edi
  0003a	5e		 pop	 esi

; 374  : }

  0003b	5d		 pop	 ebp
  0003c	c2 08 00	 ret	 8
$LN8@match:

; 371  :          return false;

  0003f	32 c0		 xor	 al, al
  00041	eb f5		 jmp	 SHORT $LN10@match
?match@Reader@Json@@AAE_NPBDH@Z ENDP			; Json::Reader::match
_TEXT	ENDS
PUBLIC	?readNumber@Reader@Json@@AAEXXZ			; Json::Reader::readNumber
; Function compile flags: /Ogsp
;	COMDAT ?readNumber@Reader@Json@@AAEXXZ
_TEXT	SEGMENT
?readNumber@Reader@Json@@AAEXXZ PROC			; Json::Reader::readNumber, COMDAT
; _this$ = ecx

; 454  :    while ( current_ != end_ )

  00000	eb 2c		 jmp	 SHORT $LN16@readNumber
$LL4@readNumber:

; 455  :    {
; 456  :       if ( !(*current_ >= '0'  &&  *current_ <= '9')  &&
; 457  :            !in( *current_, '.', 'e', 'E', '+', '-' ) )

  00002	8b 41 54	 mov	 eax, DWORD PTR [ecx+84]
  00005	8a 10		 mov	 dl, BYTE PTR [eax]
  00007	80 fa 30	 cmp	 dl, 48			; 00000030H
  0000a	7c 05		 jl	 SHORT $LN1@readNumber
  0000c	80 fa 39	 cmp	 dl, 57			; 00000039H
  0000f	7e 19		 jle	 SHORT $LN9@readNumber
$LN1@readNumber:
  00011	80 fa 2e	 cmp	 dl, 46			; 0000002eH
  00014	74 14		 je	 SHORT $LN9@readNumber
  00016	80 fa 65	 cmp	 dl, 101			; 00000065H
  00019	74 0f		 je	 SHORT $LN9@readNumber
  0001b	80 fa 45	 cmp	 dl, 69			; 00000045H
  0001e	74 0a		 je	 SHORT $LN9@readNumber
  00020	80 fa 2b	 cmp	 dl, 43			; 0000002bH
  00023	74 05		 je	 SHORT $LN9@readNumber
  00025	80 fa 2d	 cmp	 dl, 45			; 0000002dH
  00028	75 0c		 jne	 SHORT $LN14@readNumber
$LN9@readNumber:

; 458  :          break;
; 459  :       ++current_;

  0002a	40		 inc	 eax
  0002b	89 41 54	 mov	 DWORD PTR [ecx+84], eax
$LN16@readNumber:

; 454  :    while ( current_ != end_ )

  0002e	8b 41 54	 mov	 eax, DWORD PTR [ecx+84]
  00031	3b 41 50	 cmp	 eax, DWORD PTR [ecx+80]
  00034	75 cc		 jne	 SHORT $LL4@readNumber
$LN14@readNumber:

; 460  :    }
; 461  : }

  00036	c3		 ret	 0
?readNumber@Reader@Json@@AAEXXZ ENDP			; Json::Reader::readNumber
_TEXT	ENDS
PUBLIC	?getNextChar@Reader@Json@@AAEDXZ		; Json::Reader::getNextChar
; Function compile flags: /Ogsp
;	COMDAT ?getNextChar@Reader@Json@@AAEDXZ
_TEXT	SEGMENT
?getNextChar@Reader@Json@@AAEDXZ PROC			; Json::Reader::getNextChar, COMDAT
; _this$ = ecx

; 810  :    if ( current_ == end_ )

  00000	8b 51 54	 mov	 edx, DWORD PTR [ecx+84]
  00003	3b 51 50	 cmp	 edx, DWORD PTR [ecx+80]
  00006	75 03		 jne	 SHORT $LN1@getNextCha

; 811  :       return 0;

  00008	32 c0		 xor	 al, al

; 813  : }

  0000a	c3		 ret	 0
$LN1@getNextCha:

; 812  :    return *current_++;

  0000b	8a 02		 mov	 al, BYTE PTR [edx]
  0000d	42		 inc	 edx
  0000e	89 51 54	 mov	 DWORD PTR [ecx+84], edx

; 813  : }

  00011	c3		 ret	 0
?getNextChar@Reader@Json@@AAEDXZ ENDP			; Json::Reader::getNextChar
_TEXT	ENDS
PUBLIC	?getLocationLineAndColumn@Reader@Json@@ABEXPBDAAH1@Z ; Json::Reader::getLocationLineAndColumn
; Function compile flags: /Ogsp
;	COMDAT ?getLocationLineAndColumn@Reader@Json@@ABEXPBDAAH1@Z
_TEXT	SEGMENT
_location$ = 8						; size = 4
_line$ = 12						; size = 4
_column$ = 16						; size = 4
?getLocationLineAndColumn@Reader@Json@@ABEXPBDAAH1@Z PROC ; Json::Reader::getLocationLineAndColumn, COMDAT
; _this$ = ecx

; 820  : {

  00000	55		 push	 ebp
  00001	8b ec		 mov	 ebp, esp

; 821  :    Location current = begin_;

  00003	8b 51 4c	 mov	 edx, DWORD PTR [ecx+76]

; 822  :    Location lastLineStart = current;
; 823  :    line = 0;

  00006	8b 45 0c	 mov	 eax, DWORD PTR _line$[ebp]
  00009	83 20 00	 and	 DWORD PTR [eax], 0
  0000c	56		 push	 esi

; 824  :    while ( current < location  &&  current != end_ )

  0000d	8b 75 08	 mov	 esi, DWORD PTR _location$[ebp]
  00010	57		 push	 edi
  00011	8b fa		 mov	 edi, edx
  00013	3b d6		 cmp	 edx, esi
  00015	73 24		 jae	 SHORT $LN5@getLocatio
  00017	53		 push	 ebx
$LL6@getLocatio:
  00018	3b 51 50	 cmp	 edx, DWORD PTR [ecx+80]
  0001b	74 1d		 je	 SHORT $LN10@getLocatio

; 825  :    {
; 826  :       Char c = *current++;

  0001d	8a 1a		 mov	 bl, BYTE PTR [edx]
  0001f	42		 inc	 edx

; 827  :       if ( c == '\r' )

  00020	80 fb 0d	 cmp	 bl, 13			; 0000000dH
  00023	75 08		 jne	 SHORT $LN4@getLocatio

; 828  :       {
; 829  :          if ( *current == '\n' )

  00025	80 3a 0a	 cmp	 BYTE PTR [edx], 10	; 0000000aH
  00028	75 08		 jne	 SHORT $LN3@getLocatio

; 830  :             ++current;

  0002a	42		 inc	 edx

; 831  :          lastLineStart = current;
; 832  :          ++line;

  0002b	eb 05		 jmp	 SHORT $LN3@getLocatio
$LN4@getLocatio:

; 833  :       }
; 834  :       else if ( c == '\n' )

  0002d	80 fb 0a	 cmp	 bl, 10			; 0000000aH
  00030	75 04		 jne	 SHORT $LN1@getLocatio
$LN3@getLocatio:

; 835  :       {
; 836  :          lastLineStart = current;
; 837  :          ++line;

  00032	ff 00		 inc	 DWORD PTR [eax]
  00034	8b fa		 mov	 edi, edx
$LN1@getLocatio:

; 824  :    while ( current < location  &&  current != end_ )

  00036	3b d6		 cmp	 edx, esi
  00038	72 de		 jb	 SHORT $LL6@getLocatio
$LN10@getLocatio:
  0003a	5b		 pop	 ebx
$LN5@getLocatio:

; 838  :       }
; 839  :    }
; 840  :    // column & line start at 1
; 841  :    column = int(location - lastLineStart) + 1;

  0003b	8b 4d 10	 mov	 ecx, DWORD PTR _column$[ebp]
  0003e	2b f7		 sub	 esi, edi
  00040	46		 inc	 esi
  00041	89 31		 mov	 DWORD PTR [ecx], esi

; 842  :    ++line;

  00043	ff 00		 inc	 DWORD PTR [eax]
  00045	5f		 pop	 edi
  00046	5e		 pop	 esi

; 843  : }

  00047	5d		 pop	 ebp
  00048	c2 0c 00	 ret	 12			; 0000000cH
?getLocationLineAndColumn@Reader@Json@@ABEXPBDAAH1@Z ENDP ; Json::Reader::getLocationLineAndColumn
_TEXT	ENDS
PUBLIC	??1?$_Deque_const_iterator@VErrorInfo@Reader@Json@@V?$allocator@VErrorInfo@Reader@Json@@@std@@@std@@QAE@XZ ; std::_Deque_const_iterator<Json::Reader::ErrorInfo,std::allocator<Json::Reader::ErrorInfo> >::~_Deque_const_iterator<Json::Reader::ErrorInfo,std::allocator<Json::Reader::ErrorInfo> >
; Function compile flags: /Ogsp
;	COMDAT ??1?$_Deque_const_iterator@VErrorInfo@Reader@Json@@V?$allocator@VErrorInfo@Reader@Json@@@std@@@std@@QAE@XZ
_TEXT	SEGMENT
??1?$_Deque_const_iterator@VErrorInfo@Reader@Json@@V?$allocator@VErrorInfo@Reader@Json@@@std@@@std@@QAE@XZ PROC ; std::_Deque_const_iterator<Json::Reader::ErrorInfo,std::allocator<Json::Reader::ErrorInfo> >::~_Deque_const_iterator<Json::Reader::ErrorInfo,std::allocator<Json::Reader::ErrorInfo> >, COMDAT
; _this$ = ecx
  00000	c3		 ret	 0
??1?$_Deque_const_iterator@VErrorInfo@Reader@Json@@V?$allocator@VErrorInfo@Reader@Json@@@std@@@std@@QAE@XZ ENDP ; std::_Deque_const_iterator<Json::Reader::ErrorInfo,std::allocator<Json::Reader::ErrorInfo> >::~_Deque_const_iterator<Json::Reader::ErrorInfo,std::allocator<Json::Reader::ErrorInfo> >
_TEXT	ENDS
PUBLIC	?length@?$basic_string@DU?$char_traits@D@std@@V?$allocator@D@2@@std@@QBEIXZ ; std::basic_string<char,std::char_traits<char>,std::allocator<char> >::length
; Function compile flags: /Ogsp
; File c:\program files (x86)\microsoft visual studio 10.0\vc\include\xstring
;	COMDAT ?length@?$basic_string@DU?$char_traits@D@std@@V?$allocator@D@2@@std@@QBEIXZ
_TEXT	SEGMENT
?length@?$basic_string@DU?$char_traits@D@std@@V?$allocator@D@2@@std@@QBEIXZ PROC ; std::basic_string<char,std::char_traits<char>,std::allocator<char> >::length, COMDAT
; _this$ = ecx

; 1506 : 		return (this->_Mysize);

  00000	8b 41 10	 mov	 eax, DWORD PTR [ecx+16]

; 1507 : 		}

  00003	c3		 ret	 0
?length@?$basic_string@DU?$char_traits@D@std@@V?$allocator@D@2@@std@@QBEIXZ ENDP ; std::basic_string<char,std::char_traits<char>,std::allocator<char> >::length
_TEXT	ENDS
PUBLIC	?size@?$basic_string@DU?$char_traits@D@std@@V?$allocator@D@2@@std@@QBEIXZ ; std::basic_string<char,std::char_traits<char>,std::allocator<char> >::size
; Function compile flags: /Ogsp
;	COMDAT ?size@?$basic_string@DU?$char_traits@D@std@@V?$allocator@D@2@@std@@QBEIXZ
_TEXT	SEGMENT
?size@?$basic_string@DU?$char_traits@D@std@@V?$allocator@D@2@@std@@QBEIXZ PROC ; std::basic_string<char,std::char_traits<char>,std::allocator<char> >::size, COMDAT
; _this$ = ecx

; 1511 : 		return (this->_Mysize);

  00000	8b 41 10	 mov	 eax, DWORD PTR [ecx+16]

; 1512 : 		}

  00003	c3		 ret	 0
?size@?$basic_string@DU?$char_traits@D@std@@V?$allocator@D@2@@std@@QBEIXZ ENDP ; std::basic_string<char,std::char_traits<char>,std::allocator<char> >::size
_TEXT	ENDS
PUBLIC	?empty@?$basic_string@DU?$char_traits@D@std@@V?$allocator@D@2@@std@@QBE_NXZ ; std::basic_string<char,std::char_traits<char>,std::allocator<char> >::empty
; Function compile flags: /Ogsp
;	COMDAT ?empty@?$basic_string@DU?$char_traits@D@std@@V?$allocator@D@2@@std@@QBE_NXZ
_TEXT	SEGMENT
?empty@?$basic_string@DU?$char_traits@D@std@@V?$allocator@D@2@@std@@QBE_NXZ PROC ; std::basic_string<char,std::char_traits<char>,std::allocator<char> >::empty, COMDAT
; _this$ = ecx

; 1550 : 		return (this->_Mysize == 0);

  00000	33 c0		 xor	 eax, eax
  00002	39 41 10	 cmp	 DWORD PTR [ecx+16], eax
  00005	0f 94 c0	 sete	 al

; 1551 : 		}

  00008	c3		 ret	 0
?empty@?$basic_string@DU?$char_traits@D@std@@V?$allocator@D@2@@std@@QBE_NXZ ENDP ; std::basic_string<char,std::char_traits<char>,std::allocator<char> >::empty
_TEXT	ENDS
PUBLIC	??0?$_Yarn@D@std@@QAE@XZ			; std::_Yarn<char>::_Yarn<char>
; Function compile flags: /Ogsp
; File c:\program files (x86)\microsoft visual studio 10.0\vc\include\xutility
;	COMDAT ??0?$_Yarn@D@std@@QAE@XZ
_TEXT	SEGMENT
??0?$_Yarn@D@std@@QAE@XZ PROC				; std::_Yarn<char>::_Yarn<char>, COMDAT
; _this$ = ecx

; 3315 : 		{	// default construct

  00000	8b c1		 mov	 eax, ecx
  00002	83 20 00	 and	 DWORD PTR [eax], 0
  00005	c6 40 04 00	 mov	 BYTE PTR [eax+4], 0

; 3316 : 		}

  00009	c3		 ret	 0
??0?$_Yarn@D@std@@QAE@XZ ENDP				; std::_Yarn<char>::_Yarn<char>
_TEXT	ENDS
PUBLIC	?c_str@?$_Yarn@D@std@@QBEPBDXZ			; std::_Yarn<char>::c_str
; Function compile flags: /Ogsp
;	COMDAT ?c_str@?$_Yarn@D@std@@QBEPBDXZ
_TEXT	SEGMENT
?c_str@?$_Yarn@D@std@@QBEPBDXZ PROC			; std::_Yarn<char>::c_str, COMDAT
; _this$ = ecx

; 3376 : 		return (_Myptr != 0 ? _Myptr : &_Nul);

  00000	8b 01		 mov	 eax, DWORD PTR [ecx]
  00002	85 c0		 test	 eax, eax
  00004	75 03		 jne	 SHORT $LN4@c_str
  00006	8d 41 04	 lea	 eax, DWORD PTR [ecx+4]
$LN4@c_str:

; 3377 : 		}

  00009	c3		 ret	 0
?c_str@?$_Yarn@D@std@@QBEPBDXZ ENDP			; std::_Yarn<char>::c_str
_TEXT	ENDS
PUBLIC	?rdbuf@?$basic_ios@DU?$char_traits@D@std@@@std@@QBEPAV?$basic_streambuf@DU?$char_traits@D@std@@@2@XZ ; std::basic_ios<char,std::char_traits<char> >::rdbuf
; Function compile flags: /Ogsp
; File c:\program files (x86)\microsoft visual studio 10.0\vc\include\ios
;	COMDAT ?rdbuf@?$basic_ios@DU?$char_traits@D@std@@@std@@QBEPAV?$basic_streambuf@DU?$char_traits@D@std@@@2@XZ
_TEXT	SEGMENT
?rdbuf@?$basic_ios@DU?$char_traits@D@std@@@std@@QBEPAV?$basic_streambuf@DU?$char_traits@D@std@@@2@XZ PROC ; std::basic_ios<char,std::char_traits<char> >::rdbuf, COMDAT
; _this$ = ecx

; 86   : 		return (_Mystrbuf);

  00000	8b 41 38	 mov	 eax, DWORD PTR [ecx+56]

; 87   : 		}

  00003	c3		 ret	 0
?rdbuf@?$basic_ios@DU?$char_traits@D@std@@@std@@QBEPAV?$basic_streambuf@DU?$char_traits@D@std@@@2@XZ ENDP ; std::basic_ios<char,std::char_traits<char> >::rdbuf
_TEXT	ENDS
PUBLIC	??Bsentry@?$basic_istream@DU?$char_traits@D@std@@@std@@QBEPQ_Bool_struct@2@HXZ ; std::basic_istream<char,std::char_traits<char> >::sentry::operator int std::_Bool_struct::*
; Function compile flags: /Ogsp
; File c:\program files (x86)\microsoft visual studio 10.0\vc\include\istream
;	COMDAT ??Bsentry@?$basic_istream@DU?$char_traits@D@std@@@std@@QBEPQ_Bool_struct@2@HXZ
_TEXT	SEGMENT
??Bsentry@?$basic_istream@DU?$char_traits@D@std@@@std@@QBEPQ_Bool_struct@2@HXZ PROC ; std::basic_istream<char,std::char_traits<char> >::sentry::operator int std::_Bool_struct::*, COMDAT
; _this$ = ecx

; 105  : 			return (_Ok ? _CONVERTIBLE_TO_TRUE : 0);

  00000	33 c0		 xor	 eax, eax
  00002	38 41 04	 cmp	 BYTE PTR [ecx+4], al
  00005	0f 95 c0	 setne	 al
  00008	48		 dec	 eax

; 106  : 			}

  00009	c3		 ret	 0
??Bsentry@?$basic_istream@DU?$char_traits@D@std@@@std@@QBEPQ_Bool_struct@2@HXZ ENDP ; std::basic_istream<char,std::char_traits<char> >::sentry::operator int std::_Bool_struct::*
_TEXT	ENDS
PUBLIC	??1_Sentry_base@?$basic_istream@DU?$char_traits@D@std@@@std@@QAE@XZ ; std::basic_istream<char,std::char_traits<char> >::_Sentry_base::~_Sentry_base
; Function compile flags: /Ogsp
;	COMDAT ??1_Sentry_base@?$basic_istream@DU?$char_traits@D@std@@@std@@QAE@XZ
_TEXT	SEGMENT
??1_Sentry_base@?$basic_istream@DU?$char_traits@D@std@@@std@@QAE@XZ PROC ; std::basic_istream<char,std::char_traits<char> >::_Sentry_base::~_Sentry_base, COMDAT
; _this$ = ecx

; 83   : 			if (_Myistr.rdbuf() != 0)

  00000	8b 01		 mov	 eax, DWORD PTR [ecx]
  00002	8b 08		 mov	 ecx, DWORD PTR [eax]
  00004	8b 49 04	 mov	 ecx, DWORD PTR [ecx+4]
  00007	8b 44 01 38	 mov	 eax, DWORD PTR [ecx+eax+56]
  0000b	85 c0		 test	 eax, eax
  0000d	74 07		 je	 SHORT $LN1@Sentry_bas

; 84   : 				_Myistr.rdbuf()->_Unlock();

  0000f	8b 10		 mov	 edx, DWORD PTR [eax]
  00011	8b c8		 mov	 ecx, eax
  00013	ff 62 08	 jmp	 DWORD PTR [edx+8]
$LN1@Sentry_bas:

; 85   : 			}

  00016	c3		 ret	 0
??1_Sentry_base@?$basic_istream@DU?$char_traits@D@std@@@std@@QAE@XZ ENDP ; std::basic_istream<char,std::char_traits<char> >::_Sentry_base::~_Sentry_base
_TEXT	ENDS
PUBLIC	?size@?$deque@VErrorInfo@Reader@Json@@V?$allocator@VErrorInfo@Reader@Json@@@std@@@std@@QBEIXZ ; std::deque<Json::Reader::ErrorInfo,std::allocator<Json::Reader::ErrorInfo> >::size
; Function compile flags: /Ogsp
; File c:\program files (x86)\microsoft visual studio 10.0\vc\include\deque
;	COMDAT ?size@?$deque@VErrorInfo@Reader@Json@@V?$allocator@VErrorInfo@Reader@Json@@@std@@@std@@QBEIXZ
_TEXT	SEGMENT
?size@?$deque@VErrorInfo@Reader@Json@@V?$allocator@VErrorInfo@Reader@Json@@@std@@@std@@QBEIXZ PROC ; std::deque<Json::Reader::ErrorInfo,std::allocator<Json::Reader::ErrorInfo> >::size, COMDAT
; _this$ = ecx

; 1150 : 		return (this->_Mysize);

  00000	8b 41 10	 mov	 eax, DWORD PTR [ecx+16]

; 1151 : 		}

  00003	c3		 ret	 0
?size@?$deque@VErrorInfo@Reader@Json@@V?$allocator@VErrorInfo@Reader@Json@@@std@@@std@@QBEIXZ ENDP ; std::deque<Json::Reader::ErrorInfo,std::allocator<Json::Reader::ErrorInfo> >::size
_TEXT	ENDS
PUBLIC	??D?$_Deque_const_iterator@VErrorInfo@Reader@Json@@V?$allocator@VErrorInfo@Reader@Json@@@std@@@std@@QBEABVErrorInfo@Reader@Json@@XZ ; std::_Deque_const_iterator<Json::Reader::ErrorInfo,std::allocator<Json::Reader::ErrorInfo> >::operator*
; Function compile flags: /Ogsp
;	COMDAT ??D?$_Deque_const_iterator@VErrorInfo@Reader@Json@@V?$allocator@VErrorInfo@Reader@Json@@@std@@@std@@QBEABVErrorInfo@Reader@Json@@XZ
_TEXT	SEGMENT
??D?$_Deque_const_iterator@VErrorInfo@Reader@Json@@V?$allocator@VErrorInfo@Reader@Json@@@std@@@std@@QBEABVErrorInfo@Reader@Json@@XZ PROC ; std::_Deque_const_iterator<Json::Reader::ErrorInfo,std::allocator<Json::Reader::ErrorInfo> >::operator*, COMDAT
; _this$ = ecx

; 331  : 		_Mydeque *_Mycont = ((_Mydeque *)this->_Getcont());

  00000	8b 01		 mov	 eax, DWORD PTR [ecx]
  00002	85 c0		 test	 eax, eax
  00004	75 04		 jne	 SHORT $LN6@operator@2
  00006	33 d2		 xor	 edx, edx
  00008	eb 02		 jmp	 SHORT $LN7@operator@2
$LN6@operator@2:
  0000a	8b 10		 mov	 edx, DWORD PTR [eax]
$LN7@operator@2:

; 332  : 
; 333  :  #if _ITERATOR_DEBUG_LEVEL == 2
; 334  : 		if (_Mycont == 0
; 335  : 			|| this->_Myoff < _Mycont->_Myoff
; 336  : 			|| _Mycont->_Myoff + _Mycont->_Mysize <= this->_Myoff)
; 337  : 		{	// report error
; 338  : 		_DEBUG_ERROR("deque iterator not dereferencable");
; 339  : 		_SCL_SECURE_OUT_OF_RANGE;
; 340  : 		}
; 341  : 
; 342  :  #elif _ITERATOR_DEBUG_LEVEL == 1
; 343  : 		_SCL_SECURE_VALIDATE(_Mycont != 0);
; 344  : 		_SCL_SECURE_VALIDATE_RANGE(_Mycont->_Myoff <= this->_Myoff
; 345  : 			&& this->_Myoff < _Mycont->_Myoff + _Mycont->_Mysize);
; 346  :  #endif /* _ITERATOR_DEBUG_LEVEL */
; 347  : 
; 348  : 		__analysis_assume(_Mycont != 0);
; 349  : 
; 350  : 		size_type _Block = _Myoff / _DEQUESIZ;

  0000c	8b 41 08	 mov	 eax, DWORD PTR [ecx+8]

; 351  : 		size_type _Off = _Myoff & (_DEQUESIZ - 1);	// assume power of 2
; 352  : 
; 353  : 		if (_Mycont->_Mapsize <= _Block)

  0000f	8b 4a 08	 mov	 ecx, DWORD PTR [edx+8]
  00012	3b c8		 cmp	 ecx, eax
  00014	77 02		 ja	 SHORT $LN1@operator@2

; 354  : 			_Block -= _Mycont->_Mapsize;

  00016	2b c1		 sub	 eax, ecx
$LN1@operator@2:

; 355  : 		return ((_Mycont->_Map)[_Block][_Off]);

  00018	8b 4a 04	 mov	 ecx, DWORD PTR [edx+4]
  0001b	8b 04 81	 mov	 eax, DWORD PTR [ecx+eax*4]

; 356  : 		}

  0001e	c3		 ret	 0
??D?$_Deque_const_iterator@VErrorInfo@Reader@Json@@V?$allocator@VErrorInfo@Reader@Json@@@std@@@std@@QBEABVErrorInfo@Reader@Json@@XZ ENDP ; std::_Deque_const_iterator<Json::Reader::ErrorInfo,std::allocator<Json::Reader::ErrorInfo> >::operator*
_TEXT	ENDS
PUBLIC	??E?$_Deque_const_iterator@VErrorInfo@Reader@Json@@V?$allocator@VErrorInfo@Reader@Json@@@std@@@std@@QAEAAV01@XZ ; std::_Deque_const_iterator<Json::Reader::ErrorInfo,std::allocator<Json::Reader::ErrorInfo> >::operator++
; Function compile flags: /Ogsp
;	COMDAT ??E?$_Deque_const_iterator@VErrorInfo@Reader@Json@@V?$allocator@VErrorInfo@Reader@Json@@@std@@@std@@QAEAAV01@XZ
_TEXT	SEGMENT
??E?$_Deque_const_iterator@VErrorInfo@Reader@Json@@V?$allocator@VErrorInfo@Reader@Json@@@std@@@std@@QAEAAV01@XZ PROC ; std::_Deque_const_iterator<Json::Reader::ErrorInfo,std::allocator<Json::Reader::ErrorInfo> >::operator++, COMDAT
; _this$ = ecx

; 364  : 		{	// preincrement

  00000	8b c1		 mov	 eax, ecx

; 365  :  #if _ITERATOR_DEBUG_LEVEL == 2
; 366  : 		_Mydeque *_Mycont = ((_Mydeque *)this->_Getcont());
; 367  : 		if (_Mycont == 0
; 368  : 			|| _Mycont->_Myoff + _Mycont->_Mysize <= this->_Myoff)
; 369  : 		{	// report error
; 370  : 		_DEBUG_ERROR("deque iterator not incrementable");
; 371  : 		_SCL_SECURE_OUT_OF_RANGE;
; 372  : 		}
; 373  : 
; 374  :  #elif _ITERATOR_DEBUG_LEVEL == 1
; 375  : 		_Mydeque *_Mycont = ((_Mydeque *)this->_Getcont());
; 376  : 		_SCL_SECURE_VALIDATE(_Mycont != 0);
; 377  : 		_SCL_SECURE_VALIDATE_RANGE(
; 378  : 			this->_Myoff < _Mycont->_Myoff + _Mycont->_Mysize);
; 379  :  #endif /* _ITERATOR_DEBUG_LEVEL */
; 380  : 
; 381  : 		++_Myoff;

  00002	ff 40 08	 inc	 DWORD PTR [eax+8]

; 382  : 		return (*this);
; 383  : 		}

  00005	c3		 ret	 0
??E?$_Deque_const_iterator@VErrorInfo@Reader@Json@@V?$allocator@VErrorInfo@Reader@Json@@@std@@@std@@QAEAAV01@XZ ENDP ; std::_Deque_const_iterator<Json::Reader::ErrorInfo,std::allocator<Json::Reader::ErrorInfo> >::operator++
_TEXT	ENDS
PUBLIC	??1?$_Deque_iterator@VErrorInfo@Reader@Json@@V?$allocator@VErrorInfo@Reader@Json@@@std@@@std@@QAE@XZ ; std::_Deque_iterator<Json::Reader::ErrorInfo,std::allocator<Json::Reader::ErrorInfo> >::~_Deque_iterator<Json::Reader::ErrorInfo,std::allocator<Json::Reader::ErrorInfo> >
; Function compile flags: /Ogsp
;	COMDAT ??1?$_Deque_iterator@VErrorInfo@Reader@Json@@V?$allocator@VErrorInfo@Reader@Json@@@std@@@std@@QAE@XZ
_TEXT	SEGMENT
??1?$_Deque_iterator@VErrorInfo@Reader@Json@@V?$allocator@VErrorInfo@Reader@Json@@@std@@@std@@QAE@XZ PROC ; std::_Deque_iterator<Json::Reader::ErrorInfo,std::allocator<Json::Reader::ErrorInfo> >::~_Deque_iterator<Json::Reader::ErrorInfo,std::allocator<Json::Reader::ErrorInfo> >, COMDAT
; _this$ = ecx
  00000	c3		 ret	 0
??1?$_Deque_iterator@VErrorInfo@Reader@Json@@V?$allocator@VErrorInfo@Reader@Json@@@std@@@std@@QAE@XZ ENDP ; std::_Deque_iterator<Json::Reader::ErrorInfo,std::allocator<Json::Reader::ErrorInfo> >::~_Deque_iterator<Json::Reader::ErrorInfo,std::allocator<Json::Reader::ErrorInfo> >
_TEXT	ENDS
PUBLIC	?_Myptr@?$basic_string@DU?$char_traits@D@std@@V?$allocator@D@2@@std@@QAEPADXZ ; std::basic_string<char,std::char_traits<char>,std::allocator<char> >::_Myptr
; Function compile flags: /Ogsp
; File c:\program files (x86)\microsoft visual studio 10.0\vc\include\xstring
;	COMDAT ?_Myptr@?$basic_string@DU?$char_traits@D@std@@V?$allocator@D@2@@std@@QAEPADXZ
_TEXT	SEGMENT
?_Myptr@?$basic_string@DU?$char_traits@D@std@@V?$allocator@D@2@@std@@QAEPADXZ PROC ; std::basic_string<char,std::char_traits<char>,std::allocator<char> >::_Myptr, COMDAT
; _this$ = ecx

; 2003 : 		return (this->_BUF_SIZE <= this->_Myres ? this->_Bx._Ptr
; 2004 : 			: this->_Bx._Buf);

  00000	83 79 14 10	 cmp	 DWORD PTR [ecx+20], 16	; 00000010H
  00004	72 03		 jb	 SHORT $LN3@Myptr
  00006	8b 01		 mov	 eax, DWORD PTR [ecx]

; 2005 : 		}

  00008	c3		 ret	 0
$LN3@Myptr:

; 2003 : 		return (this->_BUF_SIZE <= this->_Myres ? this->_Bx._Ptr
; 2004 : 			: this->_Bx._Buf);

  00009	8b c1		 mov	 eax, ecx

; 2005 : 		}

  0000b	c3		 ret	 0
?_Myptr@?$basic_string@DU?$char_traits@D@std@@V?$allocator@D@2@@std@@QAEPADXZ ENDP ; std::basic_string<char,std::char_traits<char>,std::allocator<char> >::_Myptr
_TEXT	ENDS
PUBLIC	?_Myptr@?$basic_string@DU?$char_traits@D@std@@V?$allocator@D@2@@std@@QBEPBDXZ ; std::basic_string<char,std::char_traits<char>,std::allocator<char> >::_Myptr
; Function compile flags: /Ogsp
;	COMDAT ?_Myptr@?$basic_string@DU?$char_traits@D@std@@V?$allocator@D@2@@std@@QBEPBDXZ
_TEXT	SEGMENT
?_Myptr@?$basic_string@DU?$char_traits@D@std@@V?$allocator@D@2@@std@@QBEPBDXZ PROC ; std::basic_string<char,std::char_traits<char>,std::allocator<char> >::_Myptr, COMDAT
; _this$ = ecx

; 2009 : 		return (this->_BUF_SIZE <= this->_Myres ? this->_Bx._Ptr
; 2010 : 			: this->_Bx._Buf);

  00000	83 79 14 10	 cmp	 DWORD PTR [ecx+20], 16	; 00000010H
  00004	72 03		 jb	 SHORT $LN3@Myptr@2
  00006	8b 01		 mov	 eax, DWORD PTR [ecx]

; 2011 : 		}

  00008	c3		 ret	 0
$LN3@Myptr@2:

; 2009 : 		return (this->_BUF_SIZE <= this->_Myres ? this->_Bx._Ptr
; 2010 : 			: this->_Bx._Buf);

  00009	8b c1		 mov	 eax, ecx

; 2011 : 		}

  0000b	c3		 ret	 0
?_Myptr@?$basic_string@DU?$char_traits@D@std@@V?$allocator@D@2@@std@@QBEPBDXZ ENDP ; std::basic_string<char,std::char_traits<char>,std::allocator<char> >::_Myptr
_TEXT	ENDS
PUBLIC	??1?$_String_val@DV?$allocator@D@std@@@std@@QAE@XZ ; std::_String_val<char,std::allocator<char> >::~_String_val<char,std::allocator<char> >
; Function compile flags: /Ogsp
;	COMDAT ??1?$_String_val@DV?$allocator@D@std@@@std@@QAE@XZ
_TEXT	SEGMENT
??1?$_String_val@DV?$allocator@D@std@@@std@@QAE@XZ PROC	; std::_String_val<char,std::allocator<char> >::~_String_val<char,std::allocator<char> >, COMDAT
; _this$ = ecx

; 459  : 		}

  00000	c3		 ret	 0
??1?$_String_val@DV?$allocator@D@std@@@std@@QAE@XZ ENDP	; std::_String_val<char,std::allocator<char> >::~_String_val<char,std::allocator<char> >
_TEXT	ENDS
PUBLIC	??0?$allocator@D@std@@QAE@XZ			; std::allocator<char>::allocator<char>
; Function compile flags: /Ogsp
; File c:\program files (x86)\microsoft visual studio 10.0\vc\include\xmemory
;	COMDAT ??0?$allocator@D@std@@QAE@XZ
_TEXT	SEGMENT
??0?$allocator@D@std@@QAE@XZ PROC			; std::allocator<char>::allocator<char>, COMDAT
; _this$ = ecx

; 161  : 	_ALLOCATOR() _THROW0()

  00000	8b c1		 mov	 eax, ecx

; 162  : 		{	// construct default allocator (do nothing)
; 163  : 		}

  00002	c3		 ret	 0
??0?$allocator@D@std@@QAE@XZ ENDP			; std::allocator<char>::allocator<char>
_TEXT	ENDS
PUBLIC	??0?$allocator@D@std@@QAE@ABV01@@Z		; std::allocator<char>::allocator<char>
; Function compile flags: /Ogsp
;	COMDAT ??0?$allocator@D@std@@QAE@ABV01@@Z
_TEXT	SEGMENT
___formal$ = 8						; size = 4
??0?$allocator@D@std@@QAE@ABV01@@Z PROC			; std::allocator<char>::allocator<char>, COMDAT
; _this$ = ecx

; 165  : 	_ALLOCATOR(const _ALLOCATOR<_Ty>&) _THROW0()

  00000	8b c1		 mov	 eax, ecx

; 166  : 		{	// construct by copying (do nothing)
; 167  : 		}

  00002	c2 04 00	 ret	 4
??0?$allocator@D@std@@QAE@ABV01@@Z ENDP			; std::allocator<char>::allocator<char>
_TEXT	ENDS
PUBLIC	?_Tidy@?$_Yarn@D@std@@AAEXXZ			; std::_Yarn<char>::_Tidy
EXTRN	_free:PROC
; Function compile flags: /Ogsp
; File c:\program files (x86)\microsoft visual studio 10.0\vc\include\xutility
;	COMDAT ?_Tidy@?$_Yarn@D@std@@AAEXXZ
_TEXT	SEGMENT
?_Tidy@?$_Yarn@D@std@@AAEXXZ PROC			; std::_Yarn<char>::_Tidy, COMDAT
; _this$ = ecx

; 3391 : 		{	// discard any string

  00000	56		 push	 esi
  00001	8b f1		 mov	 esi, ecx

; 3392 : 		if (_Myptr != 0)

  00003	8b 06		 mov	 eax, DWORD PTR [esi]
  00005	85 c0		 test	 eax, eax
  00007	74 07		 je	 SHORT $LN1@Tidy

; 3393 : 
; 3394 :  #ifdef _DEBUG
; 3395 : 			_free_dbg(_Myptr, _CRT_BLOCK);
; 3396 : 
; 3397 :  #else /* _DEBUG */
; 3398 : 			_CSTD free(_Myptr);

  00009	50		 push	 eax
  0000a	e8 00 00 00 00	 call	 _free
  0000f	59		 pop	 ecx
$LN1@Tidy:

; 3399 :  #endif /* _DEBUG */
; 3400 : 
; 3401 : 		_Myptr = 0;

  00010	83 26 00	 and	 DWORD PTR [esi], 0
  00013	5e		 pop	 esi

; 3402 : 		}

  00014	c3		 ret	 0
?_Tidy@?$_Yarn@D@std@@AAEXXZ ENDP			; std::_Yarn<char>::_Tidy
_TEXT	ENDS
PUBLIC	??0_Sentry_base@?$basic_istream@DU?$char_traits@D@std@@@std@@QAE@AAV12@@Z ; std::basic_istream<char,std::char_traits<char> >::_Sentry_base::_Sentry_base
; Function compile flags: /Ogsp
; File c:\program files (x86)\microsoft visual studio 10.0\vc\include\istream
;	COMDAT ??0_Sentry_base@?$basic_istream@DU?$char_traits@D@std@@@std@@QAE@AAV12@@Z
_TEXT	SEGMENT
__Istr$ = 8						; size = 4
??0_Sentry_base@?$basic_istream@DU?$char_traits@D@std@@@std@@QAE@AAV12@@Z PROC ; std::basic_istream<char,std::char_traits<char> >::_Sentry_base::_Sentry_base, COMDAT
; _this$ = ecx

; 76   : 			{	// lock the stream buffer, if there

  00000	55		 push	 ebp
  00001	8b ec		 mov	 ebp, esp
  00003	8b 45 08	 mov	 eax, DWORD PTR __Istr$[ebp]
  00006	56		 push	 esi
  00007	8b f1		 mov	 esi, ecx
  00009	89 06		 mov	 DWORD PTR [esi], eax

; 77   : 			if (_Myistr.rdbuf() != 0)

  0000b	8b 08		 mov	 ecx, DWORD PTR [eax]
  0000d	8b 49 04	 mov	 ecx, DWORD PTR [ecx+4]
  00010	8b 44 01 38	 mov	 eax, DWORD PTR [ecx+eax+56]
  00014	85 c0		 test	 eax, eax
  00016	74 07		 je	 SHORT $LN1@Sentry_bas@2

; 78   : 				_Myistr.rdbuf()->_Lock();

  00018	8b 10		 mov	 edx, DWORD PTR [eax]
  0001a	8b c8		 mov	 ecx, eax
  0001c	ff 52 04	 call	 DWORD PTR [edx+4]
$LN1@Sentry_bas@2:

; 79   : 			}

  0001f	8b c6		 mov	 eax, esi
  00021	5e		 pop	 esi
  00022	5d		 pop	 ebp
  00023	c2 04 00	 ret	 4
??0_Sentry_base@?$basic_istream@DU?$char_traits@D@std@@@std@@QAE@AAV12@@Z ENDP ; std::basic_istream<char,std::char_traits<char> >::_Sentry_base::_Sentry_base
_TEXT	ENDS
PUBLIC	?pubsync@?$basic_streambuf@DU?$char_traits@D@std@@@std@@QAEHXZ ; std::basic_streambuf<char,std::char_traits<char> >::pubsync
; Function compile flags: /Ogsp
; File c:\program files (x86)\microsoft visual studio 10.0\vc\include\streambuf
;	COMDAT ?pubsync@?$basic_streambuf@DU?$char_traits@D@std@@@std@@QAEHXZ
_TEXT	SEGMENT
?pubsync@?$basic_streambuf@DU?$char_traits@D@std@@@std@@QAEHXZ PROC ; std::basic_streambuf<char,std::char_traits<char> >::pubsync, COMDAT
; _this$ = ecx

; 141  : 		return (sync());

  00000	8b 01		 mov	 eax, DWORD PTR [ecx]
  00002	ff 60 34	 jmp	 DWORD PTR [eax+52]
?pubsync@?$basic_streambuf@DU?$char_traits@D@std@@@std@@QAEHXZ ENDP ; std::basic_streambuf<char,std::char_traits<char> >::pubsync
_TEXT	ENDS
PUBLIC	?gptr@?$basic_streambuf@DU?$char_traits@D@std@@@std@@IBEPADXZ ; std::basic_streambuf<char,std::char_traits<char> >::gptr
; Function compile flags: /Ogsp
;	COMDAT ?gptr@?$basic_streambuf@DU?$char_traits@D@std@@@std@@IBEPADXZ
_TEXT	SEGMENT
?gptr@?$basic_streambuf@DU?$char_traits@D@std@@@std@@IBEPADXZ PROC ; std::basic_streambuf<char,std::char_traits<char> >::gptr, COMDAT
; _this$ = ecx

; 223  : 		return (*_IGnext);

  00000	8b 41 20	 mov	 eax, DWORD PTR [ecx+32]
  00003	8b 00		 mov	 eax, DWORD PTR [eax]

; 224  : 		}

  00005	c3		 ret	 0
?gptr@?$basic_streambuf@DU?$char_traits@D@std@@@std@@IBEPADXZ ENDP ; std::basic_streambuf<char,std::char_traits<char> >::gptr
_TEXT	ENDS
PUBLIC	?_Gninc@?$basic_streambuf@DU?$char_traits@D@std@@@std@@IAEPADXZ ; std::basic_streambuf<char,std::char_traits<char> >::_Gninc
; Function compile flags: /Ogsp
;	COMDAT ?_Gninc@?$basic_streambuf@DU?$char_traits@D@std@@@std@@IAEPADXZ
_TEXT	SEGMENT
?_Gninc@?$basic_streambuf@DU?$char_traits@D@std@@@std@@IAEPADXZ PROC ; std::basic_streambuf<char,std::char_traits<char> >::_Gninc, COMDAT
; _this$ = ecx

; 267  : 		--*_IGcount;

  00000	8b 41 30	 mov	 eax, DWORD PTR [ecx+48]
  00003	ff 08		 dec	 DWORD PTR [eax]

; 268  : 		return ((*_IGnext)++);

  00005	8b 49 20	 mov	 ecx, DWORD PTR [ecx+32]
  00008	8b 01		 mov	 eax, DWORD PTR [ecx]
  0000a	8d 50 01	 lea	 edx, DWORD PTR [eax+1]
  0000d	89 11		 mov	 DWORD PTR [ecx], edx

; 269  : 		}

  0000f	c3		 ret	 0
?_Gninc@?$basic_streambuf@DU?$char_traits@D@std@@@std@@IAEPADXZ ENDP ; std::basic_streambuf<char,std::char_traits<char> >::_Gninc
_TEXT	ENDS
PUBLIC	?_Gnpreinc@?$basic_streambuf@DU?$char_traits@D@std@@@std@@IAEPADXZ ; std::basic_streambuf<char,std::char_traits<char> >::_Gnpreinc
; Function compile flags: /Ogsp
;	COMDAT ?_Gnpreinc@?$basic_streambuf@DU?$char_traits@D@std@@@std@@IAEPADXZ
_TEXT	SEGMENT
?_Gnpreinc@?$basic_streambuf@DU?$char_traits@D@std@@@std@@IAEPADXZ PROC ; std::basic_streambuf<char,std::char_traits<char> >::_Gnpreinc, COMDAT
; _this$ = ecx

; 273  : 		--*_IGcount;

  00000	8b 41 30	 mov	 eax, DWORD PTR [ecx+48]
  00003	ff 08		 dec	 DWORD PTR [eax]

; 274  : 		return (++(*_IGnext));

  00005	8b 49 20	 mov	 ecx, DWORD PTR [ecx+32]
  00008	8b 01		 mov	 eax, DWORD PTR [ecx]
  0000a	40		 inc	 eax
  0000b	89 01		 mov	 DWORD PTR [ecx], eax

; 275  : 		}

  0000d	c3		 ret	 0
?_Gnpreinc@?$basic_streambuf@DU?$char_traits@D@std@@@std@@IAEPADXZ ENDP ; std::basic_streambuf<char,std::char_traits<char> >::_Gnpreinc
_TEXT	ENDS
PUBLIC	?_Gnavail@?$basic_streambuf@DU?$char_traits@D@std@@@std@@IBE_JXZ ; std::basic_streambuf<char,std::char_traits<char> >::_Gnavail
; Function compile flags: /Ogsp
;	COMDAT ?_Gnavail@?$basic_streambuf@DU?$char_traits@D@std@@@std@@IBE_JXZ
_TEXT	SEGMENT
?_Gnavail@?$basic_streambuf@DU?$char_traits@D@std@@@std@@IBE_JXZ PROC ; std::basic_streambuf<char,std::char_traits<char> >::_Gnavail, COMDAT
; _this$ = ecx

; 279  : 		return (*_IGnext != 0 ? *_IGcount : 0);

  00000	8b 51 20	 mov	 edx, DWORD PTR [ecx+32]
  00003	33 c0		 xor	 eax, eax
  00005	39 02		 cmp	 DWORD PTR [edx], eax
  00007	74 05		 je	 SHORT $LN3@Gnavail
  00009	8b 41 30	 mov	 eax, DWORD PTR [ecx+48]
  0000c	8b 00		 mov	 eax, DWORD PTR [eax]
$LN3@Gnavail:
  0000e	99		 cdq

; 280  : 		}

  0000f	c3		 ret	 0
?_Gnavail@?$basic_streambuf@DU?$char_traits@D@std@@@std@@IBE_JXZ ENDP ; std::basic_streambuf<char,std::char_traits<char> >::_Gnavail
_TEXT	ENDS
PUBLIC	?empty@?$deque@PAVValue@Json@@V?$allocator@PAVValue@Json@@@std@@@std@@QBE_NXZ ; std::deque<Json::Value *,std::allocator<Json::Value *> >::empty
; Function compile flags: /Ogsp
; File c:\program files (x86)\microsoft visual studio 10.0\vc\include\deque
;	COMDAT ?empty@?$deque@PAVValue@Json@@V?$allocator@PAVValue@Json@@@std@@@std@@QBE_NXZ
_TEXT	SEGMENT
?empty@?$deque@PAVValue@Json@@V?$allocator@PAVValue@Json@@@std@@@std@@QBE_NXZ PROC ; std::deque<Json::Value *,std::allocator<Json::Value *> >::empty, COMDAT
; _this$ = ecx

; 1160 : 		return (this->_Mysize == 0);

  00000	33 c0		 xor	 eax, eax
  00002	39 41 10	 cmp	 DWORD PTR [ecx+16], eax
  00005	0f 94 c0	 sete	 al

; 1161 : 		}

  00008	c3		 ret	 0
?empty@?$deque@PAVValue@Json@@V?$allocator@PAVValue@Json@@@std@@@std@@QBE_NXZ ENDP ; std::deque<Json::Value *,std::allocator<Json::Value *> >::empty
_TEXT	ENDS
PUBLIC	??0?$allocator@VErrorInfo@Reader@Json@@@std@@QAE@XZ ; std::allocator<Json::Reader::ErrorInfo>::allocator<Json::Reader::ErrorInfo>
; Function compile flags: /Ogsp
; File c:\program files (x86)\microsoft visual studio 10.0\vc\include\xmemory
;	COMDAT ??0?$allocator@VErrorInfo@Reader@Json@@@std@@QAE@XZ
_TEXT	SEGMENT
??0?$allocator@VErrorInfo@Reader@Json@@@std@@QAE@XZ PROC ; std::allocator<Json::Reader::ErrorInfo>::allocator<Json::Reader::ErrorInfo>, COMDAT
; _this$ = ecx

; 161  : 	_ALLOCATOR() _THROW0()

  00000	8b c1		 mov	 eax, ecx

; 162  : 		{	// construct default allocator (do nothing)
; 163  : 		}

  00002	c3		 ret	 0
??0?$allocator@VErrorInfo@Reader@Json@@@std@@QAE@XZ ENDP ; std::allocator<Json::Reader::ErrorInfo>::allocator<Json::Reader::ErrorInfo>
_TEXT	ENDS
PUBLIC	??1?$_Deque_const_iterator@PAVValue@Json@@V?$allocator@PAVValue@Json@@@std@@@std@@QAE@XZ ; std::_Deque_const_iterator<Json::Value *,std::allocator<Json::Value *> >::~_Deque_const_iterator<Json::Value *,std::allocator<Json::Value *> >
; Function compile flags: /Ogsp
;	COMDAT ??1?$_Deque_const_iterator@PAVValue@Json@@V?$allocator@PAVValue@Json@@@std@@@std@@QAE@XZ
_TEXT	SEGMENT
??1?$_Deque_const_iterator@PAVValue@Json@@V?$allocator@PAVValue@Json@@@std@@@std@@QAE@XZ PROC ; std::_Deque_const_iterator<Json::Value *,std::allocator<Json::Value *> >::~_Deque_const_iterator<Json::Value *,std::allocator<Json::Value *> >, COMDAT
; _this$ = ecx
  00000	c3		 ret	 0
??1?$_Deque_const_iterator@PAVValue@Json@@V?$allocator@PAVValue@Json@@@std@@@std@@QAE@XZ ENDP ; std::_Deque_const_iterator<Json::Value *,std::allocator<Json::Value *> >::~_Deque_const_iterator<Json::Value *,std::allocator<Json::Value *> >
_TEXT	ENDS
PUBLIC	?get_allocator@?$basic_string@DU?$char_traits@D@std@@V?$allocator@D@2@@std@@QBE?AV?$allocator@D@2@XZ ; std::basic_string<char,std::char_traits<char>,std::allocator<char> >::get_allocator
; Function compile flags: /Ogsp
; File c:\program files (x86)\microsoft visual studio 10.0\vc\include\xstring
;	COMDAT ?get_allocator@?$basic_string@DU?$char_traits@D@std@@V?$allocator@D@2@@std@@QBE?AV?$allocator@D@2@XZ
_TEXT	SEGMENT
___$ReturnUdt$ = 8					; size = 4
?get_allocator@?$basic_string@DU?$char_traits@D@std@@V?$allocator@D@2@@std@@QBE?AV?$allocator@D@2@XZ PROC ; std::basic_string<char,std::char_traits<char>,std::allocator<char> >::get_allocator, COMDAT
; _this$ = ecx

; 1905 : 		{	// return allocator object for values

  00000	55		 push	 ebp
  00001	8b ec		 mov	 ebp, esp

; 1906 : 		return (this->_Alval);

  00003	8b 45 08	 mov	 eax, DWORD PTR ___$ReturnUdt$[ebp]

; 1907 : 		}

  00006	5d		 pop	 ebp
  00007	c2 04 00	 ret	 4
?get_allocator@?$basic_string@DU?$char_traits@D@std@@V?$allocator@D@2@@std@@QBE?AV?$allocator@D@2@XZ ENDP ; std::basic_string<char,std::char_traits<char>,std::allocator<char> >::get_allocator
_TEXT	ENDS
PUBLIC	?_Chassign@?$basic_string@DU?$char_traits@D@std@@V?$allocator@D@2@@std@@QAEXIID@Z ; std::basic_string<char,std::char_traits<char>,std::allocator<char> >::_Chassign
; Function compile flags: /Ogsp
;	COMDAT ?_Chassign@?$basic_string@DU?$char_traits@D@std@@V?$allocator@D@2@@std@@QAEXIID@Z
_TEXT	SEGMENT
__Off$ = 8						; size = 4
__Count$ = 12						; size = 4
__Ch$ = 16						; size = 1
?_Chassign@?$basic_string@DU?$char_traits@D@std@@V?$allocator@D@2@@std@@QAEXIID@Z PROC ; std::basic_string<char,std::char_traits<char>,std::allocator<char> >::_Chassign, COMDAT
; _this$ = ecx

; 1910 : 		{	// assign _Count copies of _Ch beginning at _Off

  00000	55		 push	 ebp
  00001	8b ec		 mov	 ebp, esp

; 1911 : 		if (_Count == 1)

  00003	83 7d 0c 01	 cmp	 DWORD PTR __Count$[ebp], 1
  00007	75 13		 jne	 SHORT $LN2@Chassign

; 1912 : 			_Traits::assign(*(_Myptr() + _Off), _Ch);

  00009	83 79 14 10	 cmp	 DWORD PTR [ecx+20], 16	; 00000010H
  0000d	72 02		 jb	 SHORT $LN7@Chassign
  0000f	8b 09		 mov	 ecx, DWORD PTR [ecx]
$LN7@Chassign:
  00011	8a 45 10	 mov	 al, BYTE PTR __Ch$[ebp]
  00014	8b 55 08	 mov	 edx, DWORD PTR __Off$[ebp]
  00017	88 04 11	 mov	 BYTE PTR [ecx+edx], al

; 1913 : 		else

  0001a	eb 1c		 jmp	 SHORT $LN15@Chassign
$LN2@Chassign:

; 1914 : 			_Traits::assign(_Myptr() + _Off, _Count, _Ch);

  0001c	83 79 14 10	 cmp	 DWORD PTR [ecx+20], 16	; 00000010H
  00020	72 02		 jb	 SHORT $LN13@Chassign
  00022	8b 09		 mov	 ecx, DWORD PTR [ecx]
$LN13@Chassign:
  00024	0f be 45 10	 movsx	 eax, BYTE PTR __Ch$[ebp]
  00028	ff 75 0c	 push	 DWORD PTR __Count$[ebp]
  0002b	03 4d 08	 add	 ecx, DWORD PTR __Off$[ebp]
  0002e	50		 push	 eax
  0002f	51		 push	 ecx
  00030	e8 00 00 00 00	 call	 _memset
  00035	83 c4 0c	 add	 esp, 12			; 0000000cH
$LN15@Chassign:

; 1915 : 		}

  00038	5d		 pop	 ebp
  00039	c2 0c 00	 ret	 12			; 0000000cH
?_Chassign@?$basic_string@DU?$char_traits@D@std@@V?$allocator@D@2@@std@@QAEXIID@Z ENDP ; std::basic_string<char,std::char_traits<char>,std::allocator<char> >::_Chassign
_TEXT	ENDS
PUBLIC	?_Inside@?$basic_string@DU?$char_traits@D@std@@V?$allocator@D@2@@std@@QAE_NPBD@Z ; std::basic_string<char,std::char_traits<char>,std::allocator<char> >::_Inside
; Function compile flags: /Ogsp
;	COMDAT ?_Inside@?$basic_string@DU?$char_traits@D@std@@V?$allocator@D@2@@std@@QAE_NPBD@Z
_TEXT	SEGMENT
__Ptr$ = 8						; size = 4
?_Inside@?$basic_string@DU?$char_traits@D@std@@V?$allocator@D@2@@std@@QAE_NPBD@Z PROC ; std::basic_string<char,std::char_traits<char>,std::allocator<char> >::_Inside, COMDAT
; _this$ = ecx

; 1972 : 		{	// test if _Ptr points inside string

  00000	55		 push	 ebp
  00001	8b ec		 mov	 ebp, esp

; 1973 : 		if (_Ptr == 0 || _Ptr < _Myptr() || _Myptr() + this->_Mysize <= _Ptr)

  00003	83 7d 08 00	 cmp	 DWORD PTR __Ptr$[ebp], 0
  00007	74 2c		 je	 SHORT $LN2@Inside
  00009	8b 51 14	 mov	 edx, DWORD PTR [ecx+20]
  0000c	83 fa 10	 cmp	 edx, 16			; 00000010H
  0000f	72 04		 jb	 SHORT $LN8@Inside
  00011	8b 01		 mov	 eax, DWORD PTR [ecx]
  00013	eb 02		 jmp	 SHORT $LN9@Inside
$LN8@Inside:
  00015	8b c1		 mov	 eax, ecx
$LN9@Inside:
  00017	39 45 08	 cmp	 DWORD PTR __Ptr$[ebp], eax
  0001a	72 19		 jb	 SHORT $LN2@Inside
  0001c	83 fa 10	 cmp	 edx, 16			; 00000010H
  0001f	72 04		 jb	 SHORT $LN12@Inside
  00021	8b 01		 mov	 eax, DWORD PTR [ecx]
  00023	eb 02		 jmp	 SHORT $LN13@Inside
$LN12@Inside:
  00025	8b c1		 mov	 eax, ecx
$LN13@Inside:
  00027	8b 49 10	 mov	 ecx, DWORD PTR [ecx+16]
  0002a	03 c8		 add	 ecx, eax
  0002c	3b 4d 08	 cmp	 ecx, DWORD PTR __Ptr$[ebp]
  0002f	76 04		 jbe	 SHORT $LN2@Inside

; 1975 : 		else
; 1976 : 			return (true);

  00031	b0 01		 mov	 al, 1
  00033	eb 02		 jmp	 SHORT $LN1@Inside
$LN2@Inside:

; 1974 : 			return (false);	// don't ask

  00035	32 c0		 xor	 al, al
$LN1@Inside:

; 1977 : 		}

  00037	5d		 pop	 ebp
  00038	c2 04 00	 ret	 4
?_Inside@?$basic_string@DU?$char_traits@D@std@@V?$allocator@D@2@@std@@QAE_NPBD@Z ENDP ; std::basic_string<char,std::char_traits<char>,std::allocator<char> >::_Inside
_TEXT	ENDS
PUBLIC	??_C@_0BA@JFNIOLAK@string?5too?5long?$AA@	; `string'
PUBLIC	?_Xlen@?$basic_string@DU?$char_traits@D@std@@V?$allocator@D@2@@std@@QBEXXZ ; std::basic_string<char,std::char_traits<char>,std::allocator<char> >::_Xlen
EXTRN	?_Xlength_error@std@@YAXPBD@Z:PROC		; std::_Xlength_error
;	COMDAT ??_C@_0BA@JFNIOLAK@string?5too?5long?$AA@
CONST	SEGMENT
??_C@_0BA@JFNIOLAK@string?5too?5long?$AA@ DB 'string too long', 00H ; `string'
; Function compile flags: /Ogsp
CONST	ENDS
;	COMDAT ?_Xlen@?$basic_string@DU?$char_traits@D@std@@V?$allocator@D@2@@std@@QBEXXZ
_TEXT	SEGMENT
?_Xlen@?$basic_string@DU?$char_traits@D@std@@V?$allocator@D@2@@std@@QBEXXZ PROC ; std::basic_string<char,std::char_traits<char>,std::allocator<char> >::_Xlen, COMDAT
; _this$ = ecx

; 2015 : 		_Xlength_error("string too long");

  00000	68 00 00 00 00	 push	 OFFSET ??_C@_0BA@JFNIOLAK@string?5too?5long?$AA@
  00005	e8 00 00 00 00	 call	 ?_Xlength_error@std@@YAXPBD@Z ; std::_Xlength_error
$LN4@Xlen:
$LN3@Xlen:
  0000a	cc		 int	 3
?_Xlen@?$basic_string@DU?$char_traits@D@std@@V?$allocator@D@2@@std@@QBEXXZ ENDP ; std::basic_string<char,std::char_traits<char>,std::allocator<char> >::_Xlen
_TEXT	ENDS
PUBLIC	??_C@_0BI@CFPLBAOH@invalid?5string?5position?$AA@ ; `string'
PUBLIC	?_Xran@?$basic_string@DU?$char_traits@D@std@@V?$allocator@D@2@@std@@QBEXXZ ; std::basic_string<char,std::char_traits<char>,std::allocator<char> >::_Xran
EXTRN	?_Xout_of_range@std@@YAXPBD@Z:PROC		; std::_Xout_of_range
;	COMDAT ??_C@_0BI@CFPLBAOH@invalid?5string?5position?$AA@
CONST	SEGMENT
??_C@_0BI@CFPLBAOH@invalid?5string?5position?$AA@ DB 'invalid string posi'
	DB	'tion', 00H					; `string'
; Function compile flags: /Ogsp
CONST	ENDS
;	COMDAT ?_Xran@?$basic_string@DU?$char_traits@D@std@@V?$allocator@D@2@@std@@QBEXXZ
_TEXT	SEGMENT
?_Xran@?$basic_string@DU?$char_traits@D@std@@V?$allocator@D@2@@std@@QBEXXZ PROC ; std::basic_string<char,std::char_traits<char>,std::allocator<char> >::_Xran, COMDAT
; _this$ = ecx

; 2020 : 		_Xout_of_range("invalid string position");

  00000	68 00 00 00 00	 push	 OFFSET ??_C@_0BI@CFPLBAOH@invalid?5string?5position?$AA@
  00005	e8 00 00 00 00	 call	 ?_Xout_of_range@std@@YAXPBD@Z ; std::_Xout_of_range
$LN4@Xran:
$LN3@Xran:
  0000a	cc		 int	 3
?_Xran@?$basic_string@DU?$char_traits@D@std@@V?$allocator@D@2@@std@@QBEXXZ ENDP ; std::basic_string<char,std::char_traits<char>,std::allocator<char> >::_Xran
_TEXT	ENDS
PUBLIC	?deallocate@?$allocator@D@std@@QAEXPADI@Z	; std::allocator<char>::deallocate
; Function compile flags: /Ogsp
; File c:\program files (x86)\microsoft visual studio 10.0\vc\include\xmemory
;	COMDAT ?deallocate@?$allocator@D@std@@QAEXPADI@Z
_TEXT	SEGMENT
__Ptr$ = 8						; size = 4
___formal$ = 12						; size = 4
?deallocate@?$allocator@D@std@@QAEXPADI@Z PROC		; std::allocator<char>::deallocate, COMDAT
; _this$ = ecx

; 181  : 		{	// deallocate object at _Ptr, ignore size

  00000	55		 push	 ebp
  00001	8b ec		 mov	 ebp, esp

; 182  : 		::operator delete(_Ptr);

  00003	ff 75 08	 push	 DWORD PTR __Ptr$[ebp]
  00006	e8 00 00 00 00	 call	 ??3@YAXPAX@Z		; operator delete
  0000b	59		 pop	 ecx

; 183  : 		}

  0000c	5d		 pop	 ebp
  0000d	c2 08 00	 ret	 8
?deallocate@?$allocator@D@std@@QAEXPADI@Z ENDP		; std::allocator<char>::deallocate
_TEXT	ENDS
PUBLIC	?tie@?$basic_ios@DU?$char_traits@D@std@@@std@@QBEPAV?$basic_ostream@DU?$char_traits@D@std@@@2@XZ ; std::basic_ios<char,std::char_traits<char> >::tie
; Function compile flags: /Ogsp
; File c:\program files (x86)\microsoft visual studio 10.0\vc\include\ios
;	COMDAT ?tie@?$basic_ios@DU?$char_traits@D@std@@@std@@QBEPAV?$basic_ostream@DU?$char_traits@D@std@@@2@XZ
_TEXT	SEGMENT
?tie@?$basic_ios@DU?$char_traits@D@std@@@std@@QBEPAV?$basic_ostream@DU?$char_traits@D@std@@@2@XZ PROC ; std::basic_ios<char,std::char_traits<char> >::tie, COMDAT
; _this$ = ecx

; 74   : 		return (_Tiestr);

  00000	8b 41 3c	 mov	 eax, DWORD PTR [ecx+60]

; 75   : 		}

  00003	c3		 ret	 0
?tie@?$basic_ios@DU?$char_traits@D@std@@@std@@QBEPAV?$basic_ostream@DU?$char_traits@D@std@@@2@XZ ENDP ; std::basic_ios<char,std::char_traits<char> >::tie
_TEXT	ENDS
PUBLIC	??0?$allocator@PAVValue@Json@@@std@@QAE@XZ	; std::allocator<Json::Value *>::allocator<Json::Value *>
; Function compile flags: /Ogsp
; File c:\program files (x86)\microsoft visual studio 10.0\vc\include\xmemory
;	COMDAT ??0?$allocator@PAVValue@Json@@@std@@QAE@XZ
_TEXT	SEGMENT
??0?$allocator@PAVValue@Json@@@std@@QAE@XZ PROC		; std::allocator<Json::Value *>::allocator<Json::Value *>, COMDAT
; _this$ = ecx

; 161  : 	_ALLOCATOR() _THROW0()

  00000	8b c1		 mov	 eax, ecx

; 162  : 		{	// construct default allocator (do nothing)
; 163  : 		}

  00002	c3		 ret	 0
??0?$allocator@PAVValue@Json@@@std@@QAE@XZ ENDP		; std::allocator<Json::Value *>::allocator<Json::Value *>
_TEXT	ENDS
PUBLIC	?deallocate@?$allocator@PAVValue@Json@@@std@@QAEXPAPAVValue@Json@@I@Z ; std::allocator<Json::Value *>::deallocate
; Function compile flags: /Ogsp
;	COMDAT ?deallocate@?$allocator@PAVValue@Json@@@std@@QAEXPAPAVValue@Json@@I@Z
_TEXT	SEGMENT
__Ptr$ = 8						; size = 4
___formal$ = 12						; size = 4
?deallocate@?$allocator@PAVValue@Json@@@std@@QAEXPAPAVValue@Json@@I@Z PROC ; std::allocator<Json::Value *>::deallocate, COMDAT
; _this$ = ecx

; 181  : 		{	// deallocate object at _Ptr, ignore size

  00000	55		 push	 ebp
  00001	8b ec		 mov	 ebp, esp

; 182  : 		::operator delete(_Ptr);

  00003	ff 75 08	 push	 DWORD PTR __Ptr$[ebp]
  00006	e8 00 00 00 00	 call	 ??3@YAXPAX@Z		; operator delete
  0000b	59		 pop	 ecx

; 183  : 		}

  0000c	5d		 pop	 ebp
  0000d	c2 08 00	 ret	 8
?deallocate@?$allocator@PAVValue@Json@@@std@@QAEXPAPAVValue@Json@@I@Z ENDP ; std::allocator<Json::Value *>::deallocate
_TEXT	ENDS
PUBLIC	?deallocate@?$allocator@PAPAVValue@Json@@@std@@QAEXPAPAPAVValue@Json@@I@Z ; std::allocator<Json::Value * *>::deallocate
; Function compile flags: /Ogsp
;	COMDAT ?deallocate@?$allocator@PAPAVValue@Json@@@std@@QAEXPAPAPAVValue@Json@@I@Z
_TEXT	SEGMENT
__Ptr$ = 8						; size = 4
___formal$ = 12						; size = 4
?deallocate@?$allocator@PAPAVValue@Json@@@std@@QAEXPAPAPAVValue@Json@@I@Z PROC ; std::allocator<Json::Value * *>::deallocate, COMDAT
; _this$ = ecx

; 181  : 		{	// deallocate object at _Ptr, ignore size

  00000	55		 push	 ebp
  00001	8b ec		 mov	 ebp, esp

; 182  : 		::operator delete(_Ptr);

  00003	ff 75 08	 push	 DWORD PTR __Ptr$[ebp]
  00006	e8 00 00 00 00	 call	 ??3@YAXPAX@Z		; operator delete
  0000b	59		 pop	 ecx

; 183  : 		}

  0000c	5d		 pop	 ebp
  0000d	c2 08 00	 ret	 8
?deallocate@?$allocator@PAPAVValue@Json@@@std@@QAEXPAPAPAVValue@Json@@I@Z ENDP ; std::allocator<Json::Value * *>::deallocate
_TEXT	ENDS
PUBLIC	?empty@?$deque@VErrorInfo@Reader@Json@@V?$allocator@VErrorInfo@Reader@Json@@@std@@@std@@QBE_NXZ ; std::deque<Json::Reader::ErrorInfo,std::allocator<Json::Reader::ErrorInfo> >::empty
; Function compile flags: /Ogsp
; File c:\program files (x86)\microsoft visual studio 10.0\vc\include\deque
;	COMDAT ?empty@?$deque@VErrorInfo@Reader@Json@@V?$allocator@VErrorInfo@Reader@Json@@@std@@@std@@QBE_NXZ
_TEXT	SEGMENT
?empty@?$deque@VErrorInfo@Reader@Json@@V?$allocator@VErrorInfo@Reader@Json@@@std@@@std@@QBE_NXZ PROC ; std::deque<Json::Reader::ErrorInfo,std::allocator<Json::Reader::ErrorInfo> >::empty, COMDAT
; _this$ = ecx

; 1160 : 		return (this->_Mysize == 0);

  00000	33 c0		 xor	 eax, eax
  00002	39 41 10	 cmp	 DWORD PTR [ecx+16], eax
  00005	0f 94 c0	 sete	 al

; 1161 : 		}

  00008	c3		 ret	 0
?empty@?$deque@VErrorInfo@Reader@Json@@V?$allocator@VErrorInfo@Reader@Json@@@std@@@std@@QBE_NXZ ENDP ; std::deque<Json::Reader::ErrorInfo,std::allocator<Json::Reader::ErrorInfo> >::empty
_TEXT	ENDS
PUBLIC	??_C@_0BC@KBDMBKEH@deque?$DMT?$DO?5too?5long?$AA@ ; `string'
PUBLIC	?_Xlen@?$deque@VErrorInfo@Reader@Json@@V?$allocator@VErrorInfo@Reader@Json@@@std@@@std@@IBEXXZ ; std::deque<Json::Reader::ErrorInfo,std::allocator<Json::Reader::ErrorInfo> >::_Xlen
;	COMDAT ??_C@_0BC@KBDMBKEH@deque?$DMT?$DO?5too?5long?$AA@
CONST	SEGMENT
??_C@_0BC@KBDMBKEH@deque?$DMT?$DO?5too?5long?$AA@ DB 'deque<T> too long', 00H ; `string'
; Function compile flags: /Ogsp
CONST	ENDS
;	COMDAT ?_Xlen@?$deque@VErrorInfo@Reader@Json@@V?$allocator@VErrorInfo@Reader@Json@@@std@@@std@@IBEXXZ
_TEXT	SEGMENT
?_Xlen@?$deque@VErrorInfo@Reader@Json@@V?$allocator@VErrorInfo@Reader@Json@@@std@@@std@@IBEXXZ PROC ; std::deque<Json::Reader::ErrorInfo,std::allocator<Json::Reader::ErrorInfo> >::_Xlen, COMDAT
; _this$ = ecx

; 1580 : 		_Xlength_error("deque<T> too long");

  00000	68 00 00 00 00	 push	 OFFSET ??_C@_0BC@KBDMBKEH@deque?$DMT?$DO?5too?5long?$AA@
  00005	e8 00 00 00 00	 call	 ?_Xlength_error@std@@YAXPBD@Z ; std::_Xlength_error
$LN4@Xlen@2:
$LN3@Xlen@2:
  0000a	cc		 int	 3
?_Xlen@?$deque@VErrorInfo@Reader@Json@@V?$allocator@VErrorInfo@Reader@Json@@@std@@@std@@IBEXXZ ENDP ; std::deque<Json::Reader::ErrorInfo,std::allocator<Json::Reader::ErrorInfo> >::_Xlen
_TEXT	ENDS
PUBLIC	??0?$allocator@VErrorInfo@Reader@Json@@@std@@QAE@ABV01@@Z ; std::allocator<Json::Reader::ErrorInfo>::allocator<Json::Reader::ErrorInfo>
; Function compile flags: /Ogsp
; File c:\program files (x86)\microsoft visual studio 10.0\vc\include\xmemory
;	COMDAT ??0?$allocator@VErrorInfo@Reader@Json@@@std@@QAE@ABV01@@Z
_TEXT	SEGMENT
___formal$ = 8						; size = 4
??0?$allocator@VErrorInfo@Reader@Json@@@std@@QAE@ABV01@@Z PROC ; std::allocator<Json::Reader::ErrorInfo>::allocator<Json::Reader::ErrorInfo>, COMDAT
; _this$ = ecx

; 165  : 	_ALLOCATOR(const _ALLOCATOR<_Ty>&) _THROW0()

  00000	8b c1		 mov	 eax, ecx

; 166  : 		{	// construct by copying (do nothing)
; 167  : 		}

  00002	c2 04 00	 ret	 4
??0?$allocator@VErrorInfo@Reader@Json@@@std@@QAE@ABV01@@Z ENDP ; std::allocator<Json::Reader::ErrorInfo>::allocator<Json::Reader::ErrorInfo>
_TEXT	ENDS
PUBLIC	?deallocate@?$allocator@VErrorInfo@Reader@Json@@@std@@QAEXPAVErrorInfo@Reader@Json@@I@Z ; std::allocator<Json::Reader::ErrorInfo>::deallocate
; Function compile flags: /Ogsp
;	COMDAT ?deallocate@?$allocator@VErrorInfo@Reader@Json@@@std@@QAEXPAVErrorInfo@Reader@Json@@I@Z
_TEXT	SEGMENT
__Ptr$ = 8						; size = 4
___formal$ = 12						; size = 4
?deallocate@?$allocator@VErrorInfo@Reader@Json@@@std@@QAEXPAVErrorInfo@Reader@Json@@I@Z PROC ; std::allocator<Json::Reader::ErrorInfo>::deallocate, COMDAT
; _this$ = ecx

; 181  : 		{	// deallocate object at _Ptr, ignore size

  00000	55		 push	 ebp
  00001	8b ec		 mov	 ebp, esp

; 182  : 		::operator delete(_Ptr);

  00003	ff 75 08	 push	 DWORD PTR __Ptr$[ebp]
  00006	e8 00 00 00 00	 call	 ??3@YAXPAX@Z		; operator delete
  0000b	59		 pop	 ecx

; 183  : 		}

  0000c	5d		 pop	 ebp
  0000d	c2 08 00	 ret	 8
?deallocate@?$allocator@VErrorInfo@Reader@Json@@@std@@QAEXPAVErrorInfo@Reader@Json@@I@Z ENDP ; std::allocator<Json::Reader::ErrorInfo>::deallocate
_TEXT	ENDS
PUBLIC	?deallocate@?$allocator@PAVErrorInfo@Reader@Json@@@std@@QAEXPAPAVErrorInfo@Reader@Json@@I@Z ; std::allocator<Json::Reader::ErrorInfo *>::deallocate
; Function compile flags: /Ogsp
;	COMDAT ?deallocate@?$allocator@PAVErrorInfo@Reader@Json@@@std@@QAEXPAPAVErrorInfo@Reader@Json@@I@Z
_TEXT	SEGMENT
__Ptr$ = 8						; size = 4
___formal$ = 12						; size = 4
?deallocate@?$allocator@PAVErrorInfo@Reader@Json@@@std@@QAEXPAPAVErrorInfo@Reader@Json@@I@Z PROC ; std::allocator<Json::Reader::ErrorInfo *>::deallocate, COMDAT
; _this$ = ecx

; 181  : 		{	// deallocate object at _Ptr, ignore size

  00000	55		 push	 ebp
  00001	8b ec		 mov	 ebp, esp

; 182  : 		::operator delete(_Ptr);

  00003	ff 75 08	 push	 DWORD PTR __Ptr$[ebp]
  00006	e8 00 00 00 00	 call	 ??3@YAXPAX@Z		; operator delete
  0000b	59		 pop	 ecx

; 183  : 		}

  0000c	5d		 pop	 ebp
  0000d	c2 08 00	 ret	 8
?deallocate@?$allocator@PAVErrorInfo@Reader@Json@@@std@@QAEXPAPAVErrorInfo@Reader@Json@@I@Z ENDP ; std::allocator<Json::Reader::ErrorInfo *>::deallocate
_TEXT	ENDS
PUBLIC	?_Compat@?$_Deque_const_iterator@VErrorInfo@Reader@Json@@V?$allocator@VErrorInfo@Reader@Json@@@std@@@std@@QBEXABV12@@Z ; std::_Deque_const_iterator<Json::Reader::ErrorInfo,std::allocator<Json::Reader::ErrorInfo> >::_Compat
; Function compile flags: /Ogsp
; File c:\program files (x86)\microsoft visual studio 10.0\vc\include\deque
;	COMDAT ?_Compat@?$_Deque_const_iterator@VErrorInfo@Reader@Json@@V?$allocator@VErrorInfo@Reader@Json@@@std@@@std@@QBEXABV12@@Z
_TEXT	SEGMENT
___formal$ = 8						; size = 4
?_Compat@?$_Deque_const_iterator@VErrorInfo@Reader@Json@@V?$allocator@VErrorInfo@Reader@Json@@@std@@@std@@QBEXABV12@@Z PROC ; std::_Deque_const_iterator<Json::Reader::ErrorInfo,std::allocator<Json::Reader::ErrorInfo> >::_Compat, COMDAT
; _this$ = ecx

; 538  : 		}

  00000	c2 04 00	 ret	 4
?_Compat@?$_Deque_const_iterator@VErrorInfo@Reader@Json@@V?$allocator@VErrorInfo@Reader@Json@@@std@@@std@@QBEXABV12@@Z ENDP ; std::_Deque_const_iterator<Json::Reader::ErrorInfo,std::allocator<Json::Reader::ErrorInfo> >::_Compat
_TEXT	ENDS
PUBLIC	?_Setcont@?$_Deque_const_iterator@VErrorInfo@Reader@Json@@V?$allocator@VErrorInfo@Reader@Json@@@std@@@std@@QAEXPBV?$deque@VErrorInfo@Reader@Json@@V?$allocator@VErrorInfo@Reader@Json@@@std@@@2@@Z ; std::_Deque_const_iterator<Json::Reader::ErrorInfo,std::allocator<Json::Reader::ErrorInfo> >::_Setcont
; Function compile flags: /Ogsp
;	COMDAT ?_Setcont@?$_Deque_const_iterator@VErrorInfo@Reader@Json@@V?$allocator@VErrorInfo@Reader@Json@@@std@@@std@@QAEXPBV?$deque@VErrorInfo@Reader@Json@@V?$allocator@VErrorInfo@Reader@Json@@@std@@@2@@Z
_TEXT	SEGMENT
__Pdeque$ = 8						; size = 4
?_Setcont@?$_Deque_const_iterator@VErrorInfo@Reader@Json@@V?$allocator@VErrorInfo@Reader@Json@@@std@@@std@@QAEXPBV?$deque@VErrorInfo@Reader@Json@@V?$allocator@VErrorInfo@Reader@Json@@@std@@@2@@Z PROC ; std::_Deque_const_iterator<Json::Reader::ErrorInfo,std::allocator<Json::Reader::ErrorInfo> >::_Setcont, COMDAT
; _this$ = ecx

; 541  : 		{	// set container pointer

  00000	55		 push	 ebp
  00001	8b ec		 mov	 ebp, esp

; 542  : 		this->_Adopt(_Pdeque);

  00003	8b 45 08	 mov	 eax, DWORD PTR __Pdeque$[ebp]
  00006	85 c0		 test	 eax, eax
  00008	74 04		 je	 SHORT $LN3@Setcont
  0000a	8b 00		 mov	 eax, DWORD PTR [eax]
  0000c	89 01		 mov	 DWORD PTR [ecx], eax
$LN3@Setcont:

; 543  : 		}

  0000e	5d		 pop	 ebp
  0000f	c2 04 00	 ret	 4
?_Setcont@?$_Deque_const_iterator@VErrorInfo@Reader@Json@@V?$allocator@VErrorInfo@Reader@Json@@@std@@@std@@QAEXPBV?$deque@VErrorInfo@Reader@Json@@V?$allocator@VErrorInfo@Reader@Json@@@std@@@2@@Z ENDP ; std::_Deque_const_iterator<Json::Reader::ErrorInfo,std::allocator<Json::Reader::ErrorInfo> >::_Setcont
_TEXT	ENDS
PUBLIC	??Y?$_Deque_iterator@VErrorInfo@Reader@Json@@V?$allocator@VErrorInfo@Reader@Json@@@std@@@std@@QAEAAV01@H@Z ; std::_Deque_iterator<Json::Reader::ErrorInfo,std::allocator<Json::Reader::ErrorInfo> >::operator+=
; Function compile flags: /Ogsp
;	COMDAT ??Y?$_Deque_iterator@VErrorInfo@Reader@Json@@V?$allocator@VErrorInfo@Reader@Json@@@std@@@std@@QAEAAV01@H@Z
_TEXT	SEGMENT
__Off$ = 8						; size = 4
??Y?$_Deque_iterator@VErrorInfo@Reader@Json@@V?$allocator@VErrorInfo@Reader@Json@@@std@@@std@@QAEAAV01@H@Z PROC ; std::_Deque_iterator<Json::Reader::ErrorInfo,std::allocator<Json::Reader::ErrorInfo> >::operator+=, COMDAT
; _this$ = ecx

; 654  : 		{	// increment by integer

  00000	55		 push	 ebp
  00001	8b ec		 mov	 ebp, esp
  00003	8b c1		 mov	 eax, ecx

; 655  : 		this->_Myoff += _Off;

  00005	8b 4d 08	 mov	 ecx, DWORD PTR __Off$[ebp]
  00008	01 48 08	 add	 DWORD PTR [eax+8], ecx

; 656  : 		return (*this);
; 657  : 		}

  0000b	5d		 pop	 ebp
  0000c	c2 04 00	 ret	 4
??Y?$_Deque_iterator@VErrorInfo@Reader@Json@@V?$allocator@VErrorInfo@Reader@Json@@@std@@@std@@QAEAAV01@H@Z ENDP ; std::_Deque_iterator<Json::Reader::ErrorInfo,std::allocator<Json::Reader::ErrorInfo> >::operator+=
_TEXT	ENDS
PUBLIC	?deallocate@?$allocator@U_Container_proxy@std@@@std@@QAEXPAU_Container_proxy@2@I@Z ; std::allocator<std::_Container_proxy>::deallocate
; Function compile flags: /Ogsp
; File c:\program files (x86)\microsoft visual studio 10.0\vc\include\xmemory
;	COMDAT ?deallocate@?$allocator@U_Container_proxy@std@@@std@@QAEXPAU_Container_proxy@2@I@Z
_TEXT	SEGMENT
__Ptr$ = 8						; size = 4
___formal$ = 12						; size = 4
?deallocate@?$allocator@U_Container_proxy@std@@@std@@QAEXPAU_Container_proxy@2@I@Z PROC ; std::allocator<std::_Container_proxy>::deallocate, COMDAT
; _this$ = ecx

; 181  : 		{	// deallocate object at _Ptr, ignore size

  00000	55		 push	 ebp
  00001	8b ec		 mov	 ebp, esp

; 182  : 		::operator delete(_Ptr);

  00003	ff 75 08	 push	 DWORD PTR __Ptr$[ebp]
  00006	e8 00 00 00 00	 call	 ??3@YAXPAX@Z		; operator delete
  0000b	59		 pop	 ecx

; 183  : 		}

  0000c	5d		 pop	 ebp
  0000d	c2 08 00	 ret	 8
?deallocate@?$allocator@U_Container_proxy@std@@@std@@QAEXPAU_Container_proxy@2@I@Z ENDP ; std::allocator<std::_Container_proxy>::deallocate
_TEXT	ENDS
PUBLIC	?max_size@?$allocator@D@std@@QBEIXZ		; std::allocator<char>::max_size
; Function compile flags: /Ogsp
;	COMDAT ?max_size@?$allocator@D@std@@QBEIXZ
_TEXT	SEGMENT
?max_size@?$allocator@D@std@@QBEIXZ PROC		; std::allocator<char>::max_size, COMDAT
; _this$ = ecx

; 218  : 		_SIZT _Count = (_SIZT)(-1) / sizeof (_Ty);
; 219  : 		return (0 < _Count ? _Count : 1);

  00000	83 c8 ff	 or	 eax, -1

; 220  : 		}

  00003	c3		 ret	 0
?max_size@?$allocator@D@std@@QBEIXZ ENDP		; std::allocator<char>::max_size
_TEXT	ENDS
PUBLIC	?_Xlen@?$deque@PAVValue@Json@@V?$allocator@PAVValue@Json@@@std@@@std@@IBEXXZ ; std::deque<Json::Value *,std::allocator<Json::Value *> >::_Xlen
; Function compile flags: /Ogsp
; File c:\program files (x86)\microsoft visual studio 10.0\vc\include\deque
;	COMDAT ?_Xlen@?$deque@PAVValue@Json@@V?$allocator@PAVValue@Json@@@std@@@std@@IBEXXZ
_TEXT	SEGMENT
?_Xlen@?$deque@PAVValue@Json@@V?$allocator@PAVValue@Json@@@std@@@std@@IBEXXZ PROC ; std::deque<Json::Value *,std::allocator<Json::Value *> >::_Xlen, COMDAT
; _this$ = ecx

; 1580 : 		_Xlength_error("deque<T> too long");

  00000	68 00 00 00 00	 push	 OFFSET ??_C@_0BC@KBDMBKEH@deque?$DMT?$DO?5too?5long?$AA@
  00005	e8 00 00 00 00	 call	 ?_Xlength_error@std@@YAXPBD@Z ; std::_Xlength_error
$LN4@Xlen@3:
$LN3@Xlen@3:
  0000a	cc		 int	 3
?_Xlen@?$deque@PAVValue@Json@@V?$allocator@PAVValue@Json@@@std@@@std@@IBEXXZ ENDP ; std::deque<Json::Value *,std::allocator<Json::Value *> >::_Xlen
_TEXT	ENDS
PUBLIC	??0?$allocator@PAVValue@Json@@@std@@QAE@ABV01@@Z ; std::allocator<Json::Value *>::allocator<Json::Value *>
; Function compile flags: /Ogsp
; File c:\program files (x86)\microsoft visual studio 10.0\vc\include\xmemory
;	COMDAT ??0?$allocator@PAVValue@Json@@@std@@QAE@ABV01@@Z
_TEXT	SEGMENT
___formal$ = 8						; size = 4
??0?$allocator@PAVValue@Json@@@std@@QAE@ABV01@@Z PROC	; std::allocator<Json::Value *>::allocator<Json::Value *>, COMDAT
; _this$ = ecx

; 165  : 	_ALLOCATOR(const _ALLOCATOR<_Ty>&) _THROW0()

  00000	8b c1		 mov	 eax, ecx

; 166  : 		{	// construct by copying (do nothing)
; 167  : 		}

  00002	c2 04 00	 ret	 4
??0?$allocator@PAVValue@Json@@@std@@QAE@ABV01@@Z ENDP	; std::allocator<Json::Value *>::allocator<Json::Value *>
_TEXT	ENDS
PUBLIC	?max_size@?$allocator@VErrorInfo@Reader@Json@@@std@@QBEIXZ ; std::allocator<Json::Reader::ErrorInfo>::max_size
; Function compile flags: /Ogsp
;	COMDAT ?max_size@?$allocator@VErrorInfo@Reader@Json@@@std@@QBEIXZ
_TEXT	SEGMENT
?max_size@?$allocator@VErrorInfo@Reader@Json@@@std@@QBEIXZ PROC ; std::allocator<Json::Reader::ErrorInfo>::max_size, COMDAT
; _this$ = ecx

; 218  : 		_SIZT _Count = (_SIZT)(-1) / sizeof (_Ty);
; 219  : 		return (0 < _Count ? _Count : 1);

  00000	b8 5d 74 d1 05	 mov	 eax, 97612893		; 05d1745dH

; 220  : 		}

  00005	c3		 ret	 0
?max_size@?$allocator@VErrorInfo@Reader@Json@@@std@@QBEIXZ ENDP ; std::allocator<Json::Reader::ErrorInfo>::max_size
_TEXT	ENDS
PUBLIC	??G?$_Deque_const_iterator@VErrorInfo@Reader@Json@@V?$allocator@VErrorInfo@Reader@Json@@@std@@@std@@QBEHABV01@@Z ; std::_Deque_const_iterator<Json::Reader::ErrorInfo,std::allocator<Json::Reader::ErrorInfo> >::operator-
; Function compile flags: /Ogsp
; File c:\program files (x86)\microsoft visual studio 10.0\vc\include\deque
;	COMDAT ??G?$_Deque_const_iterator@VErrorInfo@Reader@Json@@V?$allocator@VErrorInfo@Reader@Json@@@std@@@std@@QBEHABV01@@Z
_TEXT	SEGMENT
__Right$ = 8						; size = 4
??G?$_Deque_const_iterator@VErrorInfo@Reader@Json@@V?$allocator@VErrorInfo@Reader@Json@@@std@@@std@@QBEHABV01@@Z PROC ; std::_Deque_const_iterator<Json::Reader::ErrorInfo,std::allocator<Json::Reader::ErrorInfo> >::operator-, COMDAT
; _this$ = ecx

; 461  : 		{	// return difference of iterators

  00000	55		 push	 ebp
  00001	8b ec		 mov	 ebp, esp

; 462  : 		_Compat(_Right);
; 463  : 		return (_Right._Myoff <= this->_Myoff
; 464  : 			? this->_Myoff - _Right._Myoff
; 465  : 			: -(difference_type)(_Right._Myoff - this->_Myoff));

  00003	8b 45 08	 mov	 eax, DWORD PTR __Right$[ebp]
  00006	8b 50 08	 mov	 edx, DWORD PTR [eax+8]
  00009	8b 41 08	 mov	 eax, DWORD PTR [ecx+8]
  0000c	2b c2		 sub	 eax, edx

; 466  : 		}

  0000e	5d		 pop	 ebp
  0000f	c2 04 00	 ret	 4
??G?$_Deque_const_iterator@VErrorInfo@Reader@Json@@V?$allocator@VErrorInfo@Reader@Json@@@std@@@std@@QBEHABV01@@Z ENDP ; std::_Deque_const_iterator<Json::Reader::ErrorInfo,std::allocator<Json::Reader::ErrorInfo> >::operator-
_TEXT	ENDS
PUBLIC	??D?$_Deque_const_iterator@PAVValue@Json@@V?$allocator@PAVValue@Json@@@std@@@std@@QBEABQAVValue@Json@@XZ ; std::_Deque_const_iterator<Json::Value *,std::allocator<Json::Value *> >::operator*
; Function compile flags: /Ogsp
;	COMDAT ??D?$_Deque_const_iterator@PAVValue@Json@@V?$allocator@PAVValue@Json@@@std@@@std@@QBEABQAVValue@Json@@XZ
_TEXT	SEGMENT
??D?$_Deque_const_iterator@PAVValue@Json@@V?$allocator@PAVValue@Json@@@std@@@std@@QBEABQAVValue@Json@@XZ PROC ; std::_Deque_const_iterator<Json::Value *,std::allocator<Json::Value *> >::operator*, COMDAT
; _this$ = ecx

; 331  : 		_Mydeque *_Mycont = ((_Mydeque *)this->_Getcont());

  00000	8b 01		 mov	 eax, DWORD PTR [ecx]
  00002	85 c0		 test	 eax, eax
  00004	75 04		 jne	 SHORT $LN6@operator@3
  00006	33 d2		 xor	 edx, edx
  00008	eb 02		 jmp	 SHORT $LN7@operator@3
$LN6@operator@3:
  0000a	8b 10		 mov	 edx, DWORD PTR [eax]
$LN7@operator@3:

; 332  : 
; 333  :  #if _ITERATOR_DEBUG_LEVEL == 2
; 334  : 		if (_Mycont == 0
; 335  : 			|| this->_Myoff < _Mycont->_Myoff
; 336  : 			|| _Mycont->_Myoff + _Mycont->_Mysize <= this->_Myoff)
; 337  : 		{	// report error
; 338  : 		_DEBUG_ERROR("deque iterator not dereferencable");
; 339  : 		_SCL_SECURE_OUT_OF_RANGE;
; 340  : 		}
; 341  : 
; 342  :  #elif _ITERATOR_DEBUG_LEVEL == 1
; 343  : 		_SCL_SECURE_VALIDATE(_Mycont != 0);
; 344  : 		_SCL_SECURE_VALIDATE_RANGE(_Mycont->_Myoff <= this->_Myoff
; 345  : 			&& this->_Myoff < _Mycont->_Myoff + _Mycont->_Mysize);
; 346  :  #endif /* _ITERATOR_DEBUG_LEVEL */
; 347  : 
; 348  : 		__analysis_assume(_Mycont != 0);
; 349  : 
; 350  : 		size_type _Block = _Myoff / _DEQUESIZ;

  0000c	8b 41 08	 mov	 eax, DWORD PTR [ecx+8]
  0000f	8b c8		 mov	 ecx, eax
  00011	56		 push	 esi

; 351  : 		size_type _Off = _Myoff & (_DEQUESIZ - 1);	// assume power of 2
; 352  : 
; 353  : 		if (_Mycont->_Mapsize <= _Block)

  00012	8b 72 08	 mov	 esi, DWORD PTR [edx+8]
  00015	c1 e9 02	 shr	 ecx, 2
  00018	83 e0 03	 and	 eax, 3
  0001b	3b f1		 cmp	 esi, ecx
  0001d	77 02		 ja	 SHORT $LN1@operator@3

; 354  : 			_Block -= _Mycont->_Mapsize;

  0001f	2b ce		 sub	 ecx, esi
$LN1@operator@3:

; 355  : 		return ((_Mycont->_Map)[_Block][_Off]);

  00021	8b 52 04	 mov	 edx, DWORD PTR [edx+4]
  00024	8b 0c 8a	 mov	 ecx, DWORD PTR [edx+ecx*4]
  00027	8d 04 81	 lea	 eax, DWORD PTR [ecx+eax*4]
  0002a	5e		 pop	 esi

; 356  : 		}

  0002b	c3		 ret	 0
??D?$_Deque_const_iterator@PAVValue@Json@@V?$allocator@PAVValue@Json@@@std@@@std@@QBEABQAVValue@Json@@XZ ENDP ; std::_Deque_const_iterator<Json::Value *,std::allocator<Json::Value *> >::operator*
_TEXT	ENDS
PUBLIC	?max_size@?$allocator@PAVValue@Json@@@std@@QBEIXZ ; std::allocator<Json::Value *>::max_size
; Function compile flags: /Ogsp
; File c:\program files (x86)\microsoft visual studio 10.0\vc\include\xmemory
;	COMDAT ?max_size@?$allocator@PAVValue@Json@@@std@@QBEIXZ
_TEXT	SEGMENT
?max_size@?$allocator@PAVValue@Json@@@std@@QBEIXZ PROC	; std::allocator<Json::Value *>::max_size, COMDAT
; _this$ = ecx

; 218  : 		_SIZT _Count = (_SIZT)(-1) / sizeof (_Ty);
; 219  : 		return (0 < _Count ? _Count : 1);

  00000	b8 ff ff ff 3f	 mov	 eax, 1073741823		; 3fffffffH

; 220  : 		}

  00005	c3		 ret	 0
?max_size@?$allocator@PAVValue@Json@@@std@@QBEIXZ ENDP	; std::allocator<Json::Value *>::max_size
_TEXT	ENDS
PUBLIC	??Y?$_Deque_iterator@PAVValue@Json@@V?$allocator@PAVValue@Json@@@std@@@std@@QAEAAV01@H@Z ; std::_Deque_iterator<Json::Value *,std::allocator<Json::Value *> >::operator+=
; Function compile flags: /Ogsp
; File c:\program files (x86)\microsoft visual studio 10.0\vc\include\deque
;	COMDAT ??Y?$_Deque_iterator@PAVValue@Json@@V?$allocator@PAVValue@Json@@@std@@@std@@QAEAAV01@H@Z
_TEXT	SEGMENT
__Off$ = 8						; size = 4
??Y?$_Deque_iterator@PAVValue@Json@@V?$allocator@PAVValue@Json@@@std@@@std@@QAEAAV01@H@Z PROC ; std::_Deque_iterator<Json::Value *,std::allocator<Json::Value *> >::operator+=, COMDAT
; _this$ = ecx

; 654  : 		{	// increment by integer

  00000	55		 push	 ebp
  00001	8b ec		 mov	 ebp, esp
  00003	8b c1		 mov	 eax, ecx

; 655  : 		this->_Myoff += _Off;

  00005	8b 4d 08	 mov	 ecx, DWORD PTR __Off$[ebp]
  00008	01 48 08	 add	 DWORD PTR [eax+8], ecx

; 656  : 		return (*this);
; 657  : 		}

  0000b	5d		 pop	 ebp
  0000c	c2 04 00	 ret	 4
??Y?$_Deque_iterator@PAVValue@Json@@V?$allocator@PAVValue@Json@@@std@@@std@@QAEAAV01@H@Z ENDP ; std::_Deque_iterator<Json::Value *,std::allocator<Json::Value *> >::operator+=
_TEXT	ENDS
PUBLIC	?_Setcont@?$_Deque_const_iterator@PAVValue@Json@@V?$allocator@PAVValue@Json@@@std@@@std@@QAEXPBV?$deque@PAVValue@Json@@V?$allocator@PAVValue@Json@@@std@@@2@@Z ; std::_Deque_const_iterator<Json::Value *,std::allocator<Json::Value *> >::_Setcont
; Function compile flags: /Ogsp
;	COMDAT ?_Setcont@?$_Deque_const_iterator@PAVValue@Json@@V?$allocator@PAVValue@Json@@@std@@@std@@QAEXPBV?$deque@PAVValue@Json@@V?$allocator@PAVValue@Json@@@std@@@2@@Z
_TEXT	SEGMENT
__Pdeque$ = 8						; size = 4
?_Setcont@?$_Deque_const_iterator@PAVValue@Json@@V?$allocator@PAVValue@Json@@@std@@@std@@QAEXPBV?$deque@PAVValue@Json@@V?$allocator@PAVValue@Json@@@std@@@2@@Z PROC ; std::_Deque_const_iterator<Json::Value *,std::allocator<Json::Value *> >::_Setcont, COMDAT
; _this$ = ecx

; 541  : 		{	// set container pointer

  00000	55		 push	 ebp
  00001	8b ec		 mov	 ebp, esp

; 542  : 		this->_Adopt(_Pdeque);

  00003	8b 45 08	 mov	 eax, DWORD PTR __Pdeque$[ebp]
  00006	85 c0		 test	 eax, eax
  00008	74 04		 je	 SHORT $LN3@Setcont@2
  0000a	8b 00		 mov	 eax, DWORD PTR [eax]
  0000c	89 01		 mov	 DWORD PTR [ecx], eax
$LN3@Setcont@2:

; 543  : 		}

  0000e	5d		 pop	 ebp
  0000f	c2 04 00	 ret	 4
?_Setcont@?$_Deque_const_iterator@PAVValue@Json@@V?$allocator@PAVValue@Json@@@std@@@std@@QAEXPBV?$deque@PAVValue@Json@@V?$allocator@PAVValue@Json@@@std@@@2@@Z ENDP ; std::_Deque_const_iterator<Json::Value *,std::allocator<Json::Value *> >::_Setcont
_TEXT	ENDS
PUBLIC	??$forward@V?$allocator@D@std@@@std@@YA$$QAV?$allocator@D@0@AAV10@@Z ; std::forward<std::allocator<char> >
; Function compile flags: /Ogsp
; File c:\program files (x86)\microsoft visual studio 10.0\vc\include\utility
;	COMDAT ??$forward@V?$allocator@D@std@@@std@@YA$$QAV?$allocator@D@0@AAV10@@Z
_TEXT	SEGMENT
__Arg$ = 8						; size = 4
??$forward@V?$allocator@D@std@@@std@@YA$$QAV?$allocator@D@0@AAV10@@Z PROC ; std::forward<std::allocator<char> >, COMDAT

; 78   : 	{	// forward _Arg, given explicitly specified type parameter

  00000	55		 push	 ebp
  00001	8b ec		 mov	 ebp, esp

; 79   : 	return ((_Ty&&)_Arg);

  00003	8b 45 08	 mov	 eax, DWORD PTR __Arg$[ebp]

; 80   : 	}

  00006	5d		 pop	 ebp
  00007	c3		 ret	 0
??$forward@V?$allocator@D@std@@@std@@YA$$QAV?$allocator@D@0@AAV10@@Z ENDP ; std::forward<std::allocator<char> >
_TEXT	ENDS
PUBLIC	??$forward@V?$basic_string@DU?$char_traits@D@std@@V?$allocator@D@2@@std@@@std@@YA$$QAV?$basic_string@DU?$char_traits@D@std@@V?$allocator@D@2@@0@AAV10@@Z ; std::forward<std::basic_string<char,std::char_traits<char>,std::allocator<char> > >
; Function compile flags: /Ogsp
;	COMDAT ??$forward@V?$basic_string@DU?$char_traits@D@std@@V?$allocator@D@2@@std@@@std@@YA$$QAV?$basic_string@DU?$char_traits@D@std@@V?$allocator@D@2@@0@AAV10@@Z
_TEXT	SEGMENT
__Arg$ = 8						; size = 4
??$forward@V?$basic_string@DU?$char_traits@D@std@@V?$allocator@D@2@@std@@@std@@YA$$QAV?$basic_string@DU?$char_traits@D@std@@V?$allocator@D@2@@0@AAV10@@Z PROC ; std::forward<std::basic_string<char,std::char_traits<char>,std::allocator<char> > >, COMDAT

; 78   : 	{	// forward _Arg, given explicitly specified type parameter

  00000	55		 push	 ebp
  00001	8b ec		 mov	 ebp, esp

; 79   : 	return ((_Ty&&)_Arg);

  00003	8b 45 08	 mov	 eax, DWORD PTR __Arg$[ebp]

; 80   : 	}

  00006	5d		 pop	 ebp
  00007	c3		 ret	 0
??$forward@V?$basic_string@DU?$char_traits@D@std@@V?$allocator@D@2@@std@@@std@@YA$$QAV?$basic_string@DU?$char_traits@D@std@@V?$allocator@D@2@@0@AAV10@@Z ENDP ; std::forward<std::basic_string<char,std::char_traits<char>,std::allocator<char> > >
_TEXT	ENDS
PUBLIC	??$move@AAPAVValue@Json@@@std@@YA$$QAPAVValue@Json@@AAPAV12@@Z ; std::move<Json::Value * &>
; Function compile flags: /Ogsp
;	COMDAT ??$move@AAPAVValue@Json@@@std@@YA$$QAPAVValue@Json@@AAPAV12@@Z
_TEXT	SEGMENT
__Arg$ = 8						; size = 4
??$move@AAPAVValue@Json@@@std@@YA$$QAPAVValue@Json@@AAPAV12@@Z PROC ; std::move<Json::Value * &>, COMDAT

; 86   : 	{	// forward _Arg as movable

  00000	55		 push	 ebp
  00001	8b ec		 mov	 ebp, esp

; 87   : 	return ((typename tr1::_Remove_reference<_Ty>::_Type&&)_Arg);

  00003	8b 45 08	 mov	 eax, DWORD PTR __Arg$[ebp]

; 88   : 	}

  00006	5d		 pop	 ebp
  00007	c3		 ret	 0
??$move@AAPAVValue@Json@@@std@@YA$$QAPAVValue@Json@@AAPAV12@@Z ENDP ; std::move<Json::Value * &>
_TEXT	ENDS
PUBLIC	??$forward@PAVValue@Json@@@std@@YA$$QAPAVValue@Json@@AAPAV12@@Z ; std::forward<Json::Value *>
; Function compile flags: /Ogsp
;	COMDAT ??$forward@PAVValue@Json@@@std@@YA$$QAPAVValue@Json@@AAPAV12@@Z
_TEXT	SEGMENT
__Arg$ = 8						; size = 4
??$forward@PAVValue@Json@@@std@@YA$$QAPAVValue@Json@@AAPAV12@@Z PROC ; std::forward<Json::Value *>, COMDAT

; 78   : 	{	// forward _Arg, given explicitly specified type parameter

  00000	55		 push	 ebp
  00001	8b ec		 mov	 ebp, esp

; 79   : 	return ((_Ty&&)_Arg);

  00003	8b 45 08	 mov	 eax, DWORD PTR __Arg$[ebp]

; 80   : 	}

  00006	5d		 pop	 ebp
  00007	c3		 ret	 0
??$forward@PAVValue@Json@@@std@@YA$$QAPAVValue@Json@@AAPAV12@@Z ENDP ; std::forward<Json::Value *>
_TEXT	ENDS
PUBLIC	??$?0PAVValue@Json@@@?$allocator@U_Container_proxy@std@@@std@@QAE@ABV?$allocator@PAVValue@Json@@@1@@Z ; std::allocator<std::_Container_proxy>::allocator<std::_Container_proxy><Json::Value *>
; Function compile flags: /Ogsp
; File c:\program files (x86)\microsoft visual studio 10.0\vc\include\xmemory
;	COMDAT ??$?0PAVValue@Json@@@?$allocator@U_Container_proxy@std@@@std@@QAE@ABV?$allocator@PAVValue@Json@@@1@@Z
_TEXT	SEGMENT
___formal$ = 8						; size = 4
??$?0PAVValue@Json@@@?$allocator@U_Container_proxy@std@@@std@@QAE@ABV?$allocator@PAVValue@Json@@@1@@Z PROC ; std::allocator<std::_Container_proxy>::allocator<std::_Container_proxy><Json::Value *>, COMDAT
; _this$ = ecx

; 170  : 		_ALLOCATOR(const _ALLOCATOR<_Other>&) _THROW0()

  00000	8b c1		 mov	 eax, ecx

; 171  : 		{	// construct from a related allocator (do nothing)
; 172  : 		}

  00002	c2 04 00	 ret	 4
??$?0PAVValue@Json@@@?$allocator@U_Container_proxy@std@@@std@@QAE@ABV?$allocator@PAVValue@Json@@@1@@Z ENDP ; std::allocator<std::_Container_proxy>::allocator<std::_Container_proxy><Json::Value *>
_TEXT	ENDS
PUBLIC	??$?0VErrorInfo@Reader@Json@@@?$allocator@PAVErrorInfo@Reader@Json@@@std@@QAE@ABV?$allocator@VErrorInfo@Reader@Json@@@1@@Z ; std::allocator<Json::Reader::ErrorInfo *>::allocator<Json::Reader::ErrorInfo *><Json::Reader::ErrorInfo>
; Function compile flags: /Ogsp
;	COMDAT ??$?0VErrorInfo@Reader@Json@@@?$allocator@PAVErrorInfo@Reader@Json@@@std@@QAE@ABV?$allocator@VErrorInfo@Reader@Json@@@1@@Z
_TEXT	SEGMENT
___formal$ = 8						; size = 4
??$?0VErrorInfo@Reader@Json@@@?$allocator@PAVErrorInfo@Reader@Json@@@std@@QAE@ABV?$allocator@VErrorInfo@Reader@Json@@@1@@Z PROC ; std::allocator<Json::Reader::ErrorInfo *>::allocator<Json::Reader::ErrorInfo *><Json::Reader::ErrorInfo>, COMDAT
; _this$ = ecx

; 170  : 		_ALLOCATOR(const _ALLOCATOR<_Other>&) _THROW0()

  00000	8b c1		 mov	 eax, ecx

; 171  : 		{	// construct from a related allocator (do nothing)
; 172  : 		}

  00002	c2 04 00	 ret	 4
??$?0VErrorInfo@Reader@Json@@@?$allocator@PAVErrorInfo@Reader@Json@@@std@@QAE@ABV?$allocator@VErrorInfo@Reader@Json@@@1@@Z ENDP ; std::allocator<Json::Reader::ErrorInfo *>::allocator<Json::Reader::ErrorInfo *><Json::Reader::ErrorInfo>
_TEXT	ENDS
PUBLIC	??$?0VErrorInfo@Reader@Json@@@?$allocator@U_Container_proxy@std@@@std@@QAE@ABV?$allocator@VErrorInfo@Reader@Json@@@1@@Z ; std::allocator<std::_Container_proxy>::allocator<std::_Container_proxy><Json::Reader::ErrorInfo>
; Function compile flags: /Ogsp
;	COMDAT ??$?0VErrorInfo@Reader@Json@@@?$allocator@U_Container_proxy@std@@@std@@QAE@ABV?$allocator@VErrorInfo@Reader@Json@@@1@@Z
_TEXT	SEGMENT
___formal$ = 8						; size = 4
??$?0VErrorInfo@Reader@Json@@@?$allocator@U_Container_proxy@std@@@std@@QAE@ABV?$allocator@VErrorInfo@Reader@Json@@@1@@Z PROC ; std::allocator<std::_Container_proxy>::allocator<std::_Container_proxy><Json::Reader::ErrorInfo>, COMDAT
; _this$ = ecx

; 170  : 		_ALLOCATOR(const _ALLOCATOR<_Other>&) _THROW0()

  00000	8b c1		 mov	 eax, ecx

; 171  : 		{	// construct from a related allocator (do nothing)
; 172  : 		}

  00002	c2 04 00	 ret	 4
??$?0VErrorInfo@Reader@Json@@@?$allocator@U_Container_proxy@std@@@std@@QAE@ABV?$allocator@VErrorInfo@Reader@Json@@@1@@Z ENDP ; std::allocator<std::_Container_proxy>::allocator<std::_Container_proxy><Json::Reader::ErrorInfo>
_TEXT	ENDS
PUBLIC	__TI2?AVbad_alloc@std@@
PUBLIC	??$_Allocate@VErrorInfo@Reader@Json@@@std@@YAPAVErrorInfo@Reader@Json@@IPAV123@@Z ; std::_Allocate<Json::Reader::ErrorInfo>
PUBLIC	__CTA2?AVbad_alloc@std@@
PUBLIC	__CT??_R0?AVbad_alloc@std@@@8??0bad_alloc@std@@QAE@ABV01@@Z12
PUBLIC	??0bad_alloc@std@@QAE@ABV01@@Z			; std::bad_alloc::bad_alloc
PUBLIC	__CT??_R0?AVexception@std@@@8??0exception@std@@QAE@ABV01@@Z12
EXTRN	??2@YAPAXI@Z:PROC				; operator new
EXTRN	__CxxThrowException@8:PROC
EXTRN	??0exception@std@@QAE@ABV01@@Z:PROC		; std::exception::exception
;	COMDAT __CT??_R0?AVexception@std@@@8??0exception@std@@QAE@ABV01@@Z12
; File c:\program files (x86)\microsoft visual studio 10.0\vc\include\exception
xdata$x	SEGMENT
__CT??_R0?AVexception@std@@@8??0exception@std@@QAE@ABV01@@Z12 DD 00H
	DD	FLAT:??_R0?AVexception@std@@@8
	DD	00H
	DD	0ffffffffH
	ORG $+4
	DD	0cH
	DD	FLAT:??0exception@std@@QAE@ABV01@@Z
xdata$x	ENDS
;	COMDAT __CT??_R0?AVbad_alloc@std@@@8??0bad_alloc@std@@QAE@ABV01@@Z12
xdata$x	SEGMENT
__CT??_R0?AVbad_alloc@std@@@8??0bad_alloc@std@@QAE@ABV01@@Z12 DD 00H
	DD	FLAT:??_R0?AVbad_alloc@std@@@8
	DD	00H
	DD	0ffffffffH
	ORG $+4
	DD	0cH
	DD	FLAT:??0bad_alloc@std@@QAE@ABV01@@Z
xdata$x	ENDS
;	COMDAT __CTA2?AVbad_alloc@std@@
xdata$x	SEGMENT
__CTA2?AVbad_alloc@std@@ DD 02H
	DD	FLAT:__CT??_R0?AVbad_alloc@std@@@8??0bad_alloc@std@@QAE@ABV01@@Z12
	DD	FLAT:__CT??_R0?AVexception@std@@@8??0exception@std@@QAE@ABV01@@Z12
xdata$x	ENDS
;	COMDAT __TI2?AVbad_alloc@std@@
xdata$x	SEGMENT
__TI2?AVbad_alloc@std@@ DD 00H
	DD	FLAT:??1bad_alloc@std@@UAE@XZ
	DD	00H
	DD	FLAT:__CTA2?AVbad_alloc@std@@
; Function compile flags: /Ogsp
; File c:\program files (x86)\microsoft visual studio 10.0\vc\include\xmemory
xdata$x	ENDS
;	COMDAT ??$_Allocate@VErrorInfo@Reader@Json@@@std@@YAPAVErrorInfo@Reader@Json@@IPAV123@@Z
_TEXT	SEGMENT
$T41334 = -12						; size = 12
$T41339 = 8						; size = 4
__Count$ = 8						; size = 4
___formal$ = 12						; size = 4
??$_Allocate@VErrorInfo@Reader@Json@@@std@@YAPAVErrorInfo@Reader@Json@@IPAV123@@Z PROC ; std::_Allocate<Json::Reader::ErrorInfo>, COMDAT

; 30   : 	{	// allocate storage for _Count elements of type _Ty

  00000	55		 push	 ebp
  00001	8b ec		 mov	 ebp, esp

; 31   : 	void *_Ptr = 0;
; 32   : 
; 33   : 	if (_Count <= 0)

  00003	8b 4d 08	 mov	 ecx, DWORD PTR __Count$[ebp]
  00006	83 ec 0c	 sub	 esp, 12			; 0000000cH
  00009	33 c0		 xor	 eax, eax
  0000b	85 c9		 test	 ecx, ecx

; 34   : 		_Count = 0;
; 35   : 	else if (((_SIZT)(-1) / sizeof (_Ty) < _Count)

  0000d	74 3b		 je	 SHORT $LN5@Allocate

; 36   : 		|| (_Ptr = ::operator new(_Count * sizeof (_Ty))) == 0)

  0000f	81 f9 5d 74 d1
	05		 cmp	 ecx, 97612893		; 05d1745dH
  00015	77 0e		 ja	 SHORT $LN1@Allocate
  00017	6b c9 2c	 imul	 ecx, 44			; 0000002cH
  0001a	51		 push	 ecx
  0001b	e8 00 00 00 00	 call	 ??2@YAPAXI@Z		; operator new
  00020	59		 pop	 ecx
  00021	85 c0		 test	 eax, eax

; 38   : 
; 39   : 	return ((_Ty _FARQ *)_Ptr);

  00023	75 25		 jne	 SHORT $LN5@Allocate
$LN1@Allocate:

; 37   : 		_THROW_NCEE(bad_alloc, 0);

  00025	83 65 08 00	 and	 DWORD PTR $T41339[ebp], 0
  00029	8d 45 08	 lea	 eax, DWORD PTR $T41339[ebp]
  0002c	50		 push	 eax
  0002d	8d 4d f4	 lea	 ecx, DWORD PTR $T41334[ebp]
  00030	e8 00 00 00 00	 call	 ??0exception@std@@QAE@ABQBD@Z ; std::exception::exception
  00035	68 00 00 00 00	 push	 OFFSET __TI2?AVbad_alloc@std@@
  0003a	8d 45 f4	 lea	 eax, DWORD PTR $T41334[ebp]
  0003d	50		 push	 eax
  0003e	c7 45 f4 00 00
	00 00		 mov	 DWORD PTR $T41334[ebp], OFFSET ??_7bad_alloc@std@@6B@
  00045	e8 00 00 00 00	 call	 __CxxThrowException@8
$LN10@Allocate:
$LN5@Allocate:

; 40   : 	}

  0004a	c9		 leave
  0004b	c3		 ret	 0
$LN9@Allocate:
??$_Allocate@VErrorInfo@Reader@Json@@@std@@YAPAVErrorInfo@Reader@Json@@IPAV123@@Z ENDP ; std::_Allocate<Json::Reader::ErrorInfo>
_TEXT	ENDS
PUBLIC	??$?0PAVValue@Json@@@?$allocator@PAPAVValue@Json@@@std@@QAE@ABV?$allocator@PAVValue@Json@@@1@@Z ; std::allocator<Json::Value * *>::allocator<Json::Value * *><Json::Value *>
; Function compile flags: /Ogsp
;	COMDAT ??$?0PAVValue@Json@@@?$allocator@PAPAVValue@Json@@@std@@QAE@ABV?$allocator@PAVValue@Json@@@1@@Z
_TEXT	SEGMENT
___formal$ = 8						; size = 4
??$?0PAVValue@Json@@@?$allocator@PAPAVValue@Json@@@std@@QAE@ABV?$allocator@PAVValue@Json@@@1@@Z PROC ; std::allocator<Json::Value * *>::allocator<Json::Value * *><Json::Value *>, COMDAT
; _this$ = ecx

; 170  : 		_ALLOCATOR(const _ALLOCATOR<_Other>&) _THROW0()

  00000	8b c1		 mov	 eax, ecx

; 171  : 		{	// construct from a related allocator (do nothing)
; 172  : 		}

  00002	c2 04 00	 ret	 4
??$?0PAVValue@Json@@@?$allocator@PAPAVValue@Json@@@std@@QAE@ABV?$allocator@PAVValue@Json@@@1@@Z ENDP ; std::allocator<Json::Value * *>::allocator<Json::Value * *><Json::Value *>
_TEXT	ENDS
PUBLIC	??$_Allocate@PAVValue@Json@@@std@@YAPAPAVValue@Json@@IPAPAV12@@Z ; std::_Allocate<Json::Value *>
; Function compile flags: /Ogsp
;	COMDAT ??$_Allocate@PAVValue@Json@@@std@@YAPAPAVValue@Json@@IPAPAV12@@Z
_TEXT	SEGMENT
$T41347 = -12						; size = 12
$T41351 = 8						; size = 4
__Count$ = 8						; size = 4
___formal$ = 12						; size = 4
??$_Allocate@PAVValue@Json@@@std@@YAPAPAVValue@Json@@IPAPAV12@@Z PROC ; std::_Allocate<Json::Value *>, COMDAT

; 30   : 	{	// allocate storage for _Count elements of type _Ty

  00000	55		 push	 ebp
  00001	8b ec		 mov	 ebp, esp

; 31   : 	void *_Ptr = 0;
; 32   : 
; 33   : 	if (_Count <= 0)

  00003	8b 4d 08	 mov	 ecx, DWORD PTR __Count$[ebp]
  00006	83 ec 0c	 sub	 esp, 12			; 0000000cH
  00009	33 c0		 xor	 eax, eax
  0000b	85 c9		 test	 ecx, ecx

; 34   : 		_Count = 0;
; 35   : 	else if (((_SIZT)(-1) / sizeof (_Ty) < _Count)

  0000d	74 3d		 je	 SHORT $LN5@Allocate@2

; 36   : 		|| (_Ptr = ::operator new(_Count * sizeof (_Ty))) == 0)

  0000f	81 f9 ff ff ff
	3f		 cmp	 ecx, 1073741823		; 3fffffffH
  00015	77 10		 ja	 SHORT $LN1@Allocate@2
  00017	8b c1		 mov	 eax, ecx
  00019	c1 e0 02	 shl	 eax, 2
  0001c	50		 push	 eax
  0001d	e8 00 00 00 00	 call	 ??2@YAPAXI@Z		; operator new
  00022	59		 pop	 ecx
  00023	85 c0		 test	 eax, eax

; 38   : 
; 39   : 	return ((_Ty _FARQ *)_Ptr);

  00025	75 25		 jne	 SHORT $LN5@Allocate@2
$LN1@Allocate@2:

; 37   : 		_THROW_NCEE(bad_alloc, 0);

  00027	83 65 08 00	 and	 DWORD PTR $T41351[ebp], 0
  0002b	8d 45 08	 lea	 eax, DWORD PTR $T41351[ebp]
  0002e	50		 push	 eax
  0002f	8d 4d f4	 lea	 ecx, DWORD PTR $T41347[ebp]
  00032	e8 00 00 00 00	 call	 ??0exception@std@@QAE@ABQBD@Z ; std::exception::exception
  00037	68 00 00 00 00	 push	 OFFSET __TI2?AVbad_alloc@std@@
  0003c	8d 45 f4	 lea	 eax, DWORD PTR $T41347[ebp]
  0003f	50		 push	 eax
  00040	c7 45 f4 00 00
	00 00		 mov	 DWORD PTR $T41347[ebp], OFFSET ??_7bad_alloc@std@@6B@
  00047	e8 00 00 00 00	 call	 __CxxThrowException@8
$LN10@Allocate@2:
$LN5@Allocate@2:

; 40   : 	}

  0004c	c9		 leave
  0004d	c3		 ret	 0
$LN9@Allocate@2:
??$_Allocate@PAVValue@Json@@@std@@YAPAPAVValue@Json@@IPAPAV12@@Z ENDP ; std::_Allocate<Json::Value *>
_TEXT	ENDS
PUBLIC	??$_Allocate@PAVErrorInfo@Reader@Json@@@std@@YAPAPAVErrorInfo@Reader@Json@@IPAPAV123@@Z ; std::_Allocate<Json::Reader::ErrorInfo *>
; Function compile flags: /Ogsp
;	COMDAT ??$_Allocate@PAVErrorInfo@Reader@Json@@@std@@YAPAPAVErrorInfo@Reader@Json@@IPAPAV123@@Z
_TEXT	SEGMENT
$T41356 = -12						; size = 12
$T41360 = 8						; size = 4
__Count$ = 8						; size = 4
___formal$ = 12						; size = 4
??$_Allocate@PAVErrorInfo@Reader@Json@@@std@@YAPAPAVErrorInfo@Reader@Json@@IPAPAV123@@Z PROC ; std::_Allocate<Json::Reader::ErrorInfo *>, COMDAT

; 30   : 	{	// allocate storage for _Count elements of type _Ty

  00000	55		 push	 ebp
  00001	8b ec		 mov	 ebp, esp

; 31   : 	void *_Ptr = 0;
; 32   : 
; 33   : 	if (_Count <= 0)

  00003	8b 4d 08	 mov	 ecx, DWORD PTR __Count$[ebp]
  00006	83 ec 0c	 sub	 esp, 12			; 0000000cH
  00009	33 c0		 xor	 eax, eax
  0000b	85 c9		 test	 ecx, ecx

; 34   : 		_Count = 0;
; 35   : 	else if (((_SIZT)(-1) / sizeof (_Ty) < _Count)

  0000d	74 3d		 je	 SHORT $LN5@Allocate@3

; 36   : 		|| (_Ptr = ::operator new(_Count * sizeof (_Ty))) == 0)

  0000f	81 f9 ff ff ff
	3f		 cmp	 ecx, 1073741823		; 3fffffffH
  00015	77 10		 ja	 SHORT $LN1@Allocate@3
  00017	8b c1		 mov	 eax, ecx
  00019	c1 e0 02	 shl	 eax, 2
  0001c	50		 push	 eax
  0001d	e8 00 00 00 00	 call	 ??2@YAPAXI@Z		; operator new
  00022	59		 pop	 ecx
  00023	85 c0		 test	 eax, eax

; 38   : 
; 39   : 	return ((_Ty _FARQ *)_Ptr);

  00025	75 25		 jne	 SHORT $LN5@Allocate@3
$LN1@Allocate@3:

; 37   : 		_THROW_NCEE(bad_alloc, 0);

  00027	83 65 08 00	 and	 DWORD PTR $T41360[ebp], 0
  0002b	8d 45 08	 lea	 eax, DWORD PTR $T41360[ebp]
  0002e	50		 push	 eax
  0002f	8d 4d f4	 lea	 ecx, DWORD PTR $T41356[ebp]
  00032	e8 00 00 00 00	 call	 ??0exception@std@@QAE@ABQBD@Z ; std::exception::exception
  00037	68 00 00 00 00	 push	 OFFSET __TI2?AVbad_alloc@std@@
  0003c	8d 45 f4	 lea	 eax, DWORD PTR $T41356[ebp]
  0003f	50		 push	 eax
  00040	c7 45 f4 00 00
	00 00		 mov	 DWORD PTR $T41356[ebp], OFFSET ??_7bad_alloc@std@@6B@
  00047	e8 00 00 00 00	 call	 __CxxThrowException@8
$LN10@Allocate@3:
$LN5@Allocate@3:

; 40   : 	}

  0004c	c9		 leave
  0004d	c3		 ret	 0
$LN9@Allocate@3:
??$_Allocate@PAVErrorInfo@Reader@Json@@@std@@YAPAPAVErrorInfo@Reader@Json@@IPAPAV123@@Z ENDP ; std::_Allocate<Json::Reader::ErrorInfo *>
_TEXT	ENDS
PUBLIC	??$_Allocate@U_Container_proxy@std@@@std@@YAPAU_Container_proxy@0@IPAU10@@Z ; std::_Allocate<std::_Container_proxy>
; Function compile flags: /Ogsp
;	COMDAT ??$_Allocate@U_Container_proxy@std@@@std@@YAPAU_Container_proxy@0@IPAU10@@Z
_TEXT	SEGMENT
$T41365 = -12						; size = 12
$T41369 = 8						; size = 4
__Count$ = 8						; size = 4
___formal$ = 12						; size = 4
??$_Allocate@U_Container_proxy@std@@@std@@YAPAU_Container_proxy@0@IPAU10@@Z PROC ; std::_Allocate<std::_Container_proxy>, COMDAT

; 30   : 	{	// allocate storage for _Count elements of type _Ty

  00000	55		 push	 ebp
  00001	8b ec		 mov	 ebp, esp

; 31   : 	void *_Ptr = 0;
; 32   : 
; 33   : 	if (_Count <= 0)

  00003	8b 4d 08	 mov	 ecx, DWORD PTR __Count$[ebp]
  00006	83 ec 0c	 sub	 esp, 12			; 0000000cH
  00009	33 c0		 xor	 eax, eax
  0000b	85 c9		 test	 ecx, ecx

; 34   : 		_Count = 0;
; 35   : 	else if (((_SIZT)(-1) / sizeof (_Ty) < _Count)

  0000d	74 3d		 je	 SHORT $LN5@Allocate@4

; 36   : 		|| (_Ptr = ::operator new(_Count * sizeof (_Ty))) == 0)

  0000f	81 f9 ff ff ff
	1f		 cmp	 ecx, 536870911		; 1fffffffH
  00015	77 10		 ja	 SHORT $LN1@Allocate@4
  00017	8b c1		 mov	 eax, ecx
  00019	c1 e0 03	 shl	 eax, 3
  0001c	50		 push	 eax
  0001d	e8 00 00 00 00	 call	 ??2@YAPAXI@Z		; operator new
  00022	59		 pop	 ecx
  00023	85 c0		 test	 eax, eax

; 38   : 
; 39   : 	return ((_Ty _FARQ *)_Ptr);

  00025	75 25		 jne	 SHORT $LN5@Allocate@4
$LN1@Allocate@4:

; 37   : 		_THROW_NCEE(bad_alloc, 0);

  00027	83 65 08 00	 and	 DWORD PTR $T41369[ebp], 0
  0002b	8d 45 08	 lea	 eax, DWORD PTR $T41369[ebp]
  0002e	50		 push	 eax
  0002f	8d 4d f4	 lea	 ecx, DWORD PTR $T41365[ebp]
  00032	e8 00 00 00 00	 call	 ??0exception@std@@QAE@ABQBD@Z ; std::exception::exception
  00037	68 00 00 00 00	 push	 OFFSET __TI2?AVbad_alloc@std@@
  0003c	8d 45 f4	 lea	 eax, DWORD PTR $T41365[ebp]
  0003f	50		 push	 eax
  00040	c7 45 f4 00 00
	00 00		 mov	 DWORD PTR $T41365[ebp], OFFSET ??_7bad_alloc@std@@6B@
  00047	e8 00 00 00 00	 call	 __CxxThrowException@8
$LN10@Allocate@4:
$LN5@Allocate@4:

; 40   : 	}

  0004c	c9		 leave
  0004d	c3		 ret	 0
$LN9@Allocate@4:
??$_Allocate@U_Container_proxy@std@@@std@@YAPAU_Container_proxy@0@IPAU10@@Z ENDP ; std::_Allocate<std::_Container_proxy>
_TEXT	ENDS
PUBLIC	??$_Allocate@D@std@@YAPADIPAD@Z			; std::_Allocate<char>
; Function compile flags: /Ogsp
;	COMDAT ??$_Allocate@D@std@@YAPADIPAD@Z
_TEXT	SEGMENT
$T41374 = -12						; size = 12
$T41378 = 8						; size = 4
__Count$ = 8						; size = 4
___formal$ = 12						; size = 4
??$_Allocate@D@std@@YAPADIPAD@Z PROC			; std::_Allocate<char>, COMDAT

; 30   : 	{	// allocate storage for _Count elements of type _Ty

  00000	55		 push	 ebp
  00001	8b ec		 mov	 ebp, esp

; 31   : 	void *_Ptr = 0;

  00003	33 c0		 xor	 eax, eax
  00005	83 ec 0c	 sub	 esp, 12			; 0000000cH

; 32   : 
; 33   : 	if (_Count <= 0)

  00008	39 45 08	 cmp	 DWORD PTR __Count$[ebp], eax

; 34   : 		_Count = 0;
; 35   : 	else if (((_SIZT)(-1) / sizeof (_Ty) < _Count)

  0000b	76 38		 jbe	 SHORT $LN5@Allocate@5

; 36   : 		|| (_Ptr = ::operator new(_Count * sizeof (_Ty))) == 0)

  0000d	83 7d 08 ff	 cmp	 DWORD PTR __Count$[ebp], -1
  00011	77 0d		 ja	 SHORT $LN1@Allocate@5
  00013	ff 75 08	 push	 DWORD PTR __Count$[ebp]
  00016	e8 00 00 00 00	 call	 ??2@YAPAXI@Z		; operator new
  0001b	59		 pop	 ecx
  0001c	85 c0		 test	 eax, eax

; 38   : 
; 39   : 	return ((_Ty _FARQ *)_Ptr);

  0001e	75 25		 jne	 SHORT $LN5@Allocate@5
$LN1@Allocate@5:

; 37   : 		_THROW_NCEE(bad_alloc, 0);

  00020	83 65 08 00	 and	 DWORD PTR $T41378[ebp], 0
  00024	8d 45 08	 lea	 eax, DWORD PTR $T41378[ebp]
  00027	50		 push	 eax
  00028	8d 4d f4	 lea	 ecx, DWORD PTR $T41374[ebp]
  0002b	e8 00 00 00 00	 call	 ??0exception@std@@QAE@ABQBD@Z ; std::exception::exception
  00030	68 00 00 00 00	 push	 OFFSET __TI2?AVbad_alloc@std@@
  00035	8d 45 f4	 lea	 eax, DWORD PTR $T41374[ebp]
  00038	50		 push	 eax
  00039	c7 45 f4 00 00
	00 00		 mov	 DWORD PTR $T41374[ebp], OFFSET ??_7bad_alloc@std@@6B@
  00040	e8 00 00 00 00	 call	 __CxxThrowException@8
$LN10@Allocate@5:
$LN5@Allocate@5:

; 40   : 	}

  00045	c9		 leave
  00046	c3		 ret	 0
$LN9@Allocate@5:
??$_Allocate@D@std@@YAPADIPAD@Z ENDP			; std::_Allocate<char>
_TEXT	ENDS
PUBLIC	??$_Allocate@PAPAVValue@Json@@@std@@YAPAPAPAVValue@Json@@IPAPAPAV12@@Z ; std::_Allocate<Json::Value * *>
; Function compile flags: /Ogsp
;	COMDAT ??$_Allocate@PAPAVValue@Json@@@std@@YAPAPAPAVValue@Json@@IPAPAPAV12@@Z
_TEXT	SEGMENT
$T41383 = -12						; size = 12
$T41387 = 8						; size = 4
__Count$ = 8						; size = 4
___formal$ = 12						; size = 4
??$_Allocate@PAPAVValue@Json@@@std@@YAPAPAPAVValue@Json@@IPAPAPAV12@@Z PROC ; std::_Allocate<Json::Value * *>, COMDAT

; 30   : 	{	// allocate storage for _Count elements of type _Ty

  00000	55		 push	 ebp
  00001	8b ec		 mov	 ebp, esp

; 31   : 	void *_Ptr = 0;
; 32   : 
; 33   : 	if (_Count <= 0)

  00003	8b 4d 08	 mov	 ecx, DWORD PTR __Count$[ebp]
  00006	83 ec 0c	 sub	 esp, 12			; 0000000cH
  00009	33 c0		 xor	 eax, eax
  0000b	85 c9		 test	 ecx, ecx

; 34   : 		_Count = 0;
; 35   : 	else if (((_SIZT)(-1) / sizeof (_Ty) < _Count)

  0000d	74 3d		 je	 SHORT $LN5@Allocate@6

; 36   : 		|| (_Ptr = ::operator new(_Count * sizeof (_Ty))) == 0)

  0000f	81 f9 ff ff ff
	3f		 cmp	 ecx, 1073741823		; 3fffffffH
  00015	77 10		 ja	 SHORT $LN1@Allocate@6
  00017	8b c1		 mov	 eax, ecx
  00019	c1 e0 02	 shl	 eax, 2
  0001c	50		 push	 eax
  0001d	e8 00 00 00 00	 call	 ??2@YAPAXI@Z		; operator new
  00022	59		 pop	 ecx
  00023	85 c0		 test	 eax, eax

; 38   : 
; 39   : 	return ((_Ty _FARQ *)_Ptr);

  00025	75 25		 jne	 SHORT $LN5@Allocate@6
$LN1@Allocate@6:

; 37   : 		_THROW_NCEE(bad_alloc, 0);

  00027	83 65 08 00	 and	 DWORD PTR $T41387[ebp], 0
  0002b	8d 45 08	 lea	 eax, DWORD PTR $T41387[ebp]
  0002e	50		 push	 eax
  0002f	8d 4d f4	 lea	 ecx, DWORD PTR $T41383[ebp]
  00032	e8 00 00 00 00	 call	 ??0exception@std@@QAE@ABQBD@Z ; std::exception::exception
  00037	68 00 00 00 00	 push	 OFFSET __TI2?AVbad_alloc@std@@
  0003c	8d 45 f4	 lea	 eax, DWORD PTR $T41383[ebp]
  0003f	50		 push	 eax
  00040	c7 45 f4 00 00
	00 00		 mov	 DWORD PTR $T41383[ebp], OFFSET ??_7bad_alloc@std@@6B@
  00047	e8 00 00 00 00	 call	 __CxxThrowException@8
$LN10@Allocate@6:
$LN5@Allocate@6:

; 40   : 	}

  0004c	c9		 leave
  0004d	c3		 ret	 0
$LN9@Allocate@6:
??$_Allocate@PAPAVValue@Json@@@std@@YAPAPAPAVValue@Json@@IPAPAPAV12@@Z ENDP ; std::_Allocate<Json::Value * *>
; Function compile flags: /Ogsp
_TEXT	ENDS
;	COMDAT ??0bad_alloc@std@@QAE@ABV01@@Z
_TEXT	SEGMENT
___that$ = 8						; size = 4
??0bad_alloc@std@@QAE@ABV01@@Z PROC			; std::bad_alloc::bad_alloc, COMDAT
; _this$ = ecx
  00000	55		 push	 ebp
  00001	8b ec		 mov	 ebp, esp
  00003	56		 push	 esi
  00004	ff 75 08	 push	 DWORD PTR ___that$[ebp]
  00007	8b f1		 mov	 esi, ecx
  00009	e8 00 00 00 00	 call	 ??0exception@std@@QAE@ABV01@@Z ; std::exception::exception
  0000e	c7 06 00 00 00
	00		 mov	 DWORD PTR [esi], OFFSET ??_7bad_alloc@std@@6B@
  00014	8b c6		 mov	 eax, esi
  00016	5e		 pop	 esi
  00017	5d		 pop	 ebp
  00018	c2 04 00	 ret	 4
??0bad_alloc@std@@QAE@ABV01@@Z ENDP			; std::bad_alloc::bad_alloc
_TEXT	ENDS
PUBLIC	?construct@?$allocator@PAVValue@Json@@@std@@QAEXPAPAVValue@Json@@$$QAPAV34@@Z ; std::allocator<Json::Value *>::construct
; Function compile flags: /Ogsp
;	COMDAT ?construct@?$allocator@PAVValue@Json@@@std@@QAEXPAPAVValue@Json@@$$QAPAV34@@Z
_TEXT	SEGMENT
__Ptr$ = 8						; size = 4
__Val$ = 12						; size = 4
?construct@?$allocator@PAVValue@Json@@@std@@QAEXPAPAVValue@Json@@$$QAPAV34@@Z PROC ; std::allocator<Json::Value *>::construct, COMDAT
; _this$ = ecx

; 201  : 		{	// construct object at _Ptr with value _Val

  00000	55		 push	 ebp
  00001	8b ec		 mov	 ebp, esp

; 202  : 		::new ((void _FARQ *)_Ptr) _Ty(_STD forward<_Ty>(_Val));

  00003	8b 45 08	 mov	 eax, DWORD PTR __Ptr$[ebp]
  00006	85 c0		 test	 eax, eax
  00008	74 07		 je	 SHORT $LN3@construct
  0000a	8b 4d 0c	 mov	 ecx, DWORD PTR __Val$[ebp]
  0000d	8b 09		 mov	 ecx, DWORD PTR [ecx]
  0000f	89 08		 mov	 DWORD PTR [eax], ecx
$LN3@construct:

; 203  : 		}

  00011	5d		 pop	 ebp
  00012	c2 08 00	 ret	 8
?construct@?$allocator@PAVValue@Json@@@std@@QAEXPAPAVValue@Json@@$$QAPAV34@@Z ENDP ; std::allocator<Json::Value *>::construct
_TEXT	ENDS
PUBLIC	??$move@AAV?$basic_istream@DU?$char_traits@D@std@@@std@@@std@@YA$$QAV?$basic_istream@DU?$char_traits@D@std@@@0@AAV10@@Z ; std::move<std::basic_istream<char,std::char_traits<char> > &>
; Function compile flags: /Ogsp
; File c:\program files (x86)\microsoft visual studio 10.0\vc\include\utility
;	COMDAT ??$move@AAV?$basic_istream@DU?$char_traits@D@std@@@std@@@std@@YA$$QAV?$basic_istream@DU?$char_traits@D@std@@@0@AAV10@@Z
_TEXT	SEGMENT
__Arg$ = 8						; size = 4
??$move@AAV?$basic_istream@DU?$char_traits@D@std@@@std@@@std@@YA$$QAV?$basic_istream@DU?$char_traits@D@std@@@0@AAV10@@Z PROC ; std::move<std::basic_istream<char,std::char_traits<char> > &>, COMDAT

; 86   : 	{	// forward _Arg as movable

  00000	55		 push	 ebp
  00001	8b ec		 mov	 ebp, esp

; 87   : 	return ((typename tr1::_Remove_reference<_Ty>::_Type&&)_Arg);

  00003	8b 45 08	 mov	 eax, DWORD PTR __Arg$[ebp]

; 88   : 	}

  00006	5d		 pop	 ebp
  00007	c3		 ret	 0
??$move@AAV?$basic_istream@DU?$char_traits@D@std@@@std@@@std@@YA$$QAV?$basic_istream@DU?$char_traits@D@std@@@0@AAV10@@Z ENDP ; std::move<std::basic_istream<char,std::char_traits<char> > &>
_TEXT	ENDS
PUBLIC	??$move@AAV?$basic_string@DU?$char_traits@D@std@@V?$allocator@D@2@@std@@@std@@YA$$QAV?$basic_string@DU?$char_traits@D@std@@V?$allocator@D@2@@0@AAV10@@Z ; std::move<std::basic_string<char,std::char_traits<char>,std::allocator<char> > &>
; Function compile flags: /Ogsp
;	COMDAT ??$move@AAV?$basic_string@DU?$char_traits@D@std@@V?$allocator@D@2@@std@@@std@@YA$$QAV?$basic_string@DU?$char_traits@D@std@@V?$allocator@D@2@@0@AAV10@@Z
_TEXT	SEGMENT
__Arg$ = 8						; size = 4
??$move@AAV?$basic_string@DU?$char_traits@D@std@@V?$allocator@D@2@@std@@@std@@YA$$QAV?$basic_string@DU?$char_traits@D@std@@V?$allocator@D@2@@0@AAV10@@Z PROC ; std::move<std::basic_string<char,std::char_traits<char>,std::allocator<char> > &>, COMDAT

; 86   : 	{	// forward _Arg as movable

  00000	55		 push	 ebp
  00001	8b ec		 mov	 ebp, esp

; 87   : 	return ((typename tr1::_Remove_reference<_Ty>::_Type&&)_Arg);

  00003	8b 45 08	 mov	 eax, DWORD PTR __Arg$[ebp]

; 88   : 	}

  00006	5d		 pop	 ebp
  00007	c3		 ret	 0
??$move@AAV?$basic_string@DU?$char_traits@D@std@@V?$allocator@D@2@@std@@@std@@YA$$QAV?$basic_string@DU?$char_traits@D@std@@V?$allocator@D@2@@0@AAV10@@Z ENDP ; std::move<std::basic_string<char,std::char_traits<char>,std::allocator<char> > &>
_TEXT	ENDS
PUBLIC	??$_Val_type@PAVErrorInfo@Reader@Json@@@std@@YAPAVErrorInfo@Reader@Json@@PAV123@@Z ; std::_Val_type<Json::Reader::ErrorInfo *>
; Function compile flags: /Ogsp
; File c:\program files (x86)\microsoft visual studio 10.0\vc\include\xutility
;	COMDAT ??$_Val_type@PAVErrorInfo@Reader@Json@@@std@@YAPAVErrorInfo@Reader@Json@@PAV123@@Z
_TEXT	SEGMENT
___formal$ = 8						; size = 4
??$_Val_type@PAVErrorInfo@Reader@Json@@@std@@YAPAVErrorInfo@Reader@Json@@PAV123@@Z PROC ; std::_Val_type<Json::Reader::ErrorInfo *>, COMDAT

; 790  : 	return (0);

  00000	33 c0		 xor	 eax, eax

; 791  : 	}

  00002	c3		 ret	 0
??$_Val_type@PAVErrorInfo@Reader@Json@@@std@@YAPAVErrorInfo@Reader@Json@@PAV123@@Z ENDP ; std::_Val_type<Json::Reader::ErrorInfo *>
_TEXT	ENDS
PUBLIC	??$_Ptr_cat@VErrorInfo@Reader@Json@@V123@@std@@YA?AU_Nonscalar_ptr_iterator_tag@0@PAVErrorInfo@Reader@Json@@0@Z ; std::_Ptr_cat<Json::Reader::ErrorInfo,Json::Reader::ErrorInfo>
; Function compile flags: /Ogsp
;	COMDAT ??$_Ptr_cat@VErrorInfo@Reader@Json@@V123@@std@@YA?AU_Nonscalar_ptr_iterator_tag@0@PAVErrorInfo@Reader@Json@@0@Z
_TEXT	SEGMENT
__Cat$ = -1						; size = 1
___formal$ = 8						; size = 4
___formal$ = 12						; size = 4
??$_Ptr_cat@VErrorInfo@Reader@Json@@V123@@std@@YA?AU_Nonscalar_ptr_iterator_tag@0@PAVErrorInfo@Reader@Json@@0@Z PROC ; std::_Ptr_cat<Json::Reader::ErrorInfo,Json::Reader::ErrorInfo>, COMDAT

; 516  : 	{	// return pointer category from pointers

  00000	55		 push	 ebp
  00001	8b ec		 mov	 ebp, esp
  00003	51		 push	 ecx

; 517  : 	typename _Ptr_cat_helper<_Elem1, _Elem2>::_Type _Cat;
; 518  : 	return (_Cat);

  00004	8a 45 ff	 mov	 al, BYTE PTR __Cat$[ebp]

; 519  : 	}

  00007	c9		 leave
  00008	c3		 ret	 0
??$_Ptr_cat@VErrorInfo@Reader@Json@@V123@@std@@YA?AU_Nonscalar_ptr_iterator_tag@0@PAVErrorInfo@Reader@Json@@0@Z ENDP ; std::_Ptr_cat<Json::Reader::ErrorInfo,Json::Reader::ErrorInfo>
_TEXT	ENDS
PUBLIC	??$forward@ABVErrorInfo@Reader@Json@@@std@@YAABVErrorInfo@Reader@Json@@ABV123@@Z ; std::forward<Json::Reader::ErrorInfo const &>
; Function compile flags: /Ogsp
; File c:\program files (x86)\microsoft visual studio 10.0\vc\include\utility
;	COMDAT ??$forward@ABVErrorInfo@Reader@Json@@@std@@YAABVErrorInfo@Reader@Json@@ABV123@@Z
_TEXT	SEGMENT
__Arg$ = 8						; size = 4
??$forward@ABVErrorInfo@Reader@Json@@@std@@YAABVErrorInfo@Reader@Json@@ABV123@@Z PROC ; std::forward<Json::Reader::ErrorInfo const &>, COMDAT

; 78   : 	{	// forward _Arg, given explicitly specified type parameter

  00000	55		 push	 ebp
  00001	8b ec		 mov	 ebp, esp

; 79   : 	return ((_Ty&&)_Arg);

  00003	8b 45 08	 mov	 eax, DWORD PTR __Arg$[ebp]

; 80   : 	}

  00006	5d		 pop	 ebp
  00007	c3		 ret	 0
??$forward@ABVErrorInfo@Reader@Json@@@std@@YAABVErrorInfo@Reader@Json@@ABV123@@Z ENDP ; std::forward<Json::Reader::ErrorInfo const &>
_TEXT	ENDS
PUBLIC	??$?8DD@std@@YA_NABV?$allocator@D@0@0@Z		; std::operator==<char,char>
; Function compile flags: /Ogsp
; File c:\program files (x86)\microsoft visual studio 10.0\vc\include\xmemory
;	COMDAT ??$?8DD@std@@YA_NABV?$allocator@D@0@0@Z
_TEXT	SEGMENT
___formal$ = 8						; size = 4
___formal$ = 12						; size = 4
??$?8DD@std@@YA_NABV?$allocator@D@0@0@Z PROC		; std::operator==<char,char>, COMDAT

; 263  : 	return (true);

  00000	b0 01		 mov	 al, 1

; 264  : 	}

  00002	c3		 ret	 0
??$?8DD@std@@YA_NABV?$allocator@D@0@0@Z ENDP		; std::operator==<char,char>
_TEXT	ENDS
PUBLIC	??$_Ptr_cat@V?$_Deque_iterator@VErrorInfo@Reader@Json@@V?$allocator@VErrorInfo@Reader@Json@@@std@@@std@@V12@@std@@YA?AU_Nonscalar_ptr_iterator_tag@0@AAV?$_Deque_iterator@VErrorInfo@Reader@Json@@V?$allocator@VErrorInfo@Reader@Json@@@std@@@0@0@Z ; std::_Ptr_cat<std::_Deque_iterator<Json::Reader::ErrorInfo,std::allocator<Json::Reader::ErrorInfo> >,std::_Deque_iterator<Json::Reader::ErrorInfo,std::allocator<Json::Reader::ErrorInfo> > >
; Function compile flags: /Ogsp
; File c:\program files (x86)\microsoft visual studio 10.0\vc\include\xutility
;	COMDAT ??$_Ptr_cat@V?$_Deque_iterator@VErrorInfo@Reader@Json@@V?$allocator@VErrorInfo@Reader@Json@@@std@@@std@@V12@@std@@YA?AU_Nonscalar_ptr_iterator_tag@0@AAV?$_Deque_iterator@VErrorInfo@Reader@Json@@V?$allocator@VErrorInfo@Reader@Json@@@std@@@0@0@Z
_TEXT	SEGMENT
__Cat$ = -1						; size = 1
___formal$ = 8						; size = 4
___formal$ = 12						; size = 4
??$_Ptr_cat@V?$_Deque_iterator@VErrorInfo@Reader@Json@@V?$allocator@VErrorInfo@Reader@Json@@@std@@@std@@V12@@std@@YA?AU_Nonscalar_ptr_iterator_tag@0@AAV?$_Deque_iterator@VErrorInfo@Reader@Json@@V?$allocator@VErrorInfo@Reader@Json@@@std@@@0@0@Z PROC ; std::_Ptr_cat<std::_Deque_iterator<Json::Reader::ErrorInfo,std::allocator<Json::Reader::ErrorInfo> >,std::_Deque_iterator<Json::Reader::ErrorInfo,std::allocator<Json::Reader::ErrorInfo> > >, COMDAT

; 485  : 	{	// return pointer category from arbitrary arguments

  00000	55		 push	 ebp
  00001	8b ec		 mov	 ebp, esp
  00003	51		 push	 ecx

; 486  : 	_Nonscalar_ptr_iterator_tag _Cat;
; 487  : 	return (_Cat);

  00004	8a 45 ff	 mov	 al, BYTE PTR __Cat$[ebp]

; 488  : 	}

  00007	c9		 leave
  00008	c3		 ret	 0
??$_Ptr_cat@V?$_Deque_iterator@VErrorInfo@Reader@Json@@V?$allocator@VErrorInfo@Reader@Json@@@std@@@std@@V12@@std@@YA?AU_Nonscalar_ptr_iterator_tag@0@AAV?$_Deque_iterator@VErrorInfo@Reader@Json@@V?$allocator@VErrorInfo@Reader@Json@@@std@@@0@0@Z ENDP ; std::_Ptr_cat<std::_Deque_iterator<Json::Reader::ErrorInfo,std::allocator<Json::Reader::ErrorInfo> >,std::_Deque_iterator<Json::Reader::ErrorInfo,std::allocator<Json::Reader::ErrorInfo> > >
_TEXT	ENDS
PUBLIC	??$_Ptr_cat@PAVErrorInfo@Reader@Json@@PAV123@@std@@YA?AU_Scalar_ptr_iterator_tag@0@PAPAVErrorInfo@Reader@Json@@0@Z ; std::_Ptr_cat<Json::Reader::ErrorInfo *,Json::Reader::ErrorInfo *>
; Function compile flags: /Ogsp
;	COMDAT ??$_Ptr_cat@PAVErrorInfo@Reader@Json@@PAV123@@std@@YA?AU_Scalar_ptr_iterator_tag@0@PAPAVErrorInfo@Reader@Json@@0@Z
_TEXT	SEGMENT
__Cat$ = -1						; size = 1
___formal$ = 8						; size = 4
___formal$ = 12						; size = 4
??$_Ptr_cat@PAVErrorInfo@Reader@Json@@PAV123@@std@@YA?AU_Scalar_ptr_iterator_tag@0@PAPAVErrorInfo@Reader@Json@@0@Z PROC ; std::_Ptr_cat<Json::Reader::ErrorInfo *,Json::Reader::ErrorInfo *>, COMDAT

; 516  : 	{	// return pointer category from pointers

  00000	55		 push	 ebp
  00001	8b ec		 mov	 ebp, esp
  00003	51		 push	 ecx

; 517  : 	typename _Ptr_cat_helper<_Elem1, _Elem2>::_Type _Cat;
; 518  : 	return (_Cat);

  00004	8a 45 ff	 mov	 al, BYTE PTR __Cat$[ebp]

; 519  : 	}

  00007	c9		 leave
  00008	c3		 ret	 0
??$_Ptr_cat@PAVErrorInfo@Reader@Json@@PAV123@@std@@YA?AU_Scalar_ptr_iterator_tag@0@PAPAVErrorInfo@Reader@Json@@0@Z ENDP ; std::_Ptr_cat<Json::Reader::ErrorInfo *,Json::Reader::ErrorInfo *>
_TEXT	ENDS
PUBLIC	??$_Uninit_copy@PAVErrorInfo@Reader@Json@@PAV123@@std@@YAPAPAVErrorInfo@Reader@Json@@PAPAV123@00AAV?$allocator@PAVErrorInfo@Reader@Json@@@0@U_Scalar_ptr_iterator_tag@0@@Z ; std::_Uninit_copy<Json::Reader::ErrorInfo *,Json::Reader::ErrorInfo *>
; Function compile flags: /Ogsp
; File c:\program files (x86)\microsoft visual studio 10.0\vc\include\memory
;	COMDAT ??$_Uninit_copy@PAVErrorInfo@Reader@Json@@PAV123@@std@@YAPAPAVErrorInfo@Reader@Json@@PAPAV123@00AAV?$allocator@PAVErrorInfo@Reader@Json@@@0@U_Scalar_ptr_iterator_tag@0@@Z
_TEXT	SEGMENT
__First$ = 8						; size = 4
__Last$ = 12						; size = 4
__Dest$ = 16						; size = 4
___formal$ = 20						; size = 4
___formal$ = 24						; size = 1
??$_Uninit_copy@PAVErrorInfo@Reader@Json@@PAV123@@std@@YAPAPAVErrorInfo@Reader@Json@@PAPAV123@00AAV?$allocator@PAVErrorInfo@Reader@Json@@@0@U_Scalar_ptr_iterator_tag@0@@Z PROC ; std::_Uninit_copy<Json::Reader::ErrorInfo *,Json::Reader::ErrorInfo *>, COMDAT

; 399  : 	{	// copy [_First, _Last) to raw _Dest, scalar type

  00000	55		 push	 ebp
  00001	8b ec		 mov	 ebp, esp
  00003	56		 push	 esi

; 400  : 	_DEBUG_RANGE(_First, _Last);
; 401  : 	_DEBUG_POINTER(_Dest);
; 402  : 	size_t _Count = (size_t)(_Last - _First);

  00004	8b 75 0c	 mov	 esi, DWORD PTR __Last$[ebp]
  00007	2b 75 08	 sub	 esi, DWORD PTR __First$[ebp]
  0000a	c1 fe 02	 sar	 esi, 2

; 403  : 	return ((_Ty2 *)_CSTD memmove(&*_Dest, &*_First,
; 404  : 		_Count * sizeof (*_First)) + _Count);	// NB: non-overlapping move

  0000d	c1 e6 02	 shl	 esi, 2
  00010	56		 push	 esi
  00011	ff 75 08	 push	 DWORD PTR __First$[ebp]
  00014	ff 75 10	 push	 DWORD PTR __Dest$[ebp]
  00017	e8 00 00 00 00	 call	 _memmove
  0001c	83 c4 0c	 add	 esp, 12			; 0000000cH
  0001f	03 c6		 add	 eax, esi
  00021	5e		 pop	 esi

; 405  : 	}

  00022	5d		 pop	 ebp
  00023	c3		 ret	 0
??$_Uninit_copy@PAVErrorInfo@Reader@Json@@PAV123@@std@@YAPAPAVErrorInfo@Reader@Json@@PAPAV123@00AAV?$allocator@PAVErrorInfo@Reader@Json@@@0@U_Scalar_ptr_iterator_tag@0@@Z ENDP ; std::_Uninit_copy<Json::Reader::ErrorInfo *,Json::Reader::ErrorInfo *>
_TEXT	ENDS
PUBLIC	??$_Val_type@PAPAVErrorInfo@Reader@Json@@@std@@YAPAPAVErrorInfo@Reader@Json@@PAPAV123@@Z ; std::_Val_type<Json::Reader::ErrorInfo * *>
; Function compile flags: /Ogsp
; File c:\program files (x86)\microsoft visual studio 10.0\vc\include\xutility
;	COMDAT ??$_Val_type@PAPAVErrorInfo@Reader@Json@@@std@@YAPAPAVErrorInfo@Reader@Json@@PAPAV123@@Z
_TEXT	SEGMENT
___formal$ = 8						; size = 4
??$_Val_type@PAPAVErrorInfo@Reader@Json@@@std@@YAPAPAVErrorInfo@Reader@Json@@PAPAV123@@Z PROC ; std::_Val_type<Json::Reader::ErrorInfo * *>, COMDAT

; 790  : 	return (0);

  00000	33 c0		 xor	 eax, eax

; 791  : 	}

  00002	c3		 ret	 0
??$_Val_type@PAPAVErrorInfo@Reader@Json@@@std@@YAPAPAVErrorInfo@Reader@Json@@PAPAV123@@Z ENDP ; std::_Val_type<Json::Reader::ErrorInfo * *>
_TEXT	ENDS
PUBLIC	??$_Destroy_range@V?$allocator@PAVErrorInfo@Reader@Json@@@std@@@std@@YAXPAPAVErrorInfo@Reader@Json@@0AAV?$allocator@PAVErrorInfo@Reader@Json@@@0@U_Scalar_ptr_iterator_tag@0@@Z ; std::_Destroy_range<std::allocator<Json::Reader::ErrorInfo *> >
; Function compile flags: /Ogsp
; File c:\program files (x86)\microsoft visual studio 10.0\vc\include\xmemory
;	COMDAT ??$_Destroy_range@V?$allocator@PAVErrorInfo@Reader@Json@@@std@@@std@@YAXPAPAVErrorInfo@Reader@Json@@0AAV?$allocator@PAVErrorInfo@Reader@Json@@@0@U_Scalar_ptr_iterator_tag@0@@Z
_TEXT	SEGMENT
__First$ = 8						; size = 4
__Last$ = 12						; size = 4
__Al$ = 16						; size = 4
___formal$ = 20						; size = 1
??$_Destroy_range@V?$allocator@PAVErrorInfo@Reader@Json@@@std@@@std@@YAXPAPAVErrorInfo@Reader@Json@@0AAV?$allocator@PAVErrorInfo@Reader@Json@@@0@U_Scalar_ptr_iterator_tag@0@@Z PROC ; std::_Destroy_range<std::allocator<Json::Reader::ErrorInfo *> >, COMDAT

; 105  : 	}

  00000	c3		 ret	 0
??$_Destroy_range@V?$allocator@PAVErrorInfo@Reader@Json@@@std@@@std@@YAXPAPAVErrorInfo@Reader@Json@@0AAV?$allocator@PAVErrorInfo@Reader@Json@@@0@U_Scalar_ptr_iterator_tag@0@@Z ENDP ; std::_Destroy_range<std::allocator<Json::Reader::ErrorInfo *> >
_TEXT	ENDS
PUBLIC	??$forward@U_Container_proxy@std@@@std@@YA$$QAU_Container_proxy@0@AAU10@@Z ; std::forward<std::_Container_proxy>
; Function compile flags: /Ogsp
; File c:\program files (x86)\microsoft visual studio 10.0\vc\include\utility
;	COMDAT ??$forward@U_Container_proxy@std@@@std@@YA$$QAU_Container_proxy@0@AAU10@@Z
_TEXT	SEGMENT
__Arg$ = 8						; size = 4
??$forward@U_Container_proxy@std@@@std@@YA$$QAU_Container_proxy@0@AAU10@@Z PROC ; std::forward<std::_Container_proxy>, COMDAT

; 78   : 	{	// forward _Arg, given explicitly specified type parameter

  00000	55		 push	 ebp
  00001	8b ec		 mov	 ebp, esp

; 79   : 	return ((_Ty&&)_Arg);

  00003	8b 45 08	 mov	 eax, DWORD PTR __Arg$[ebp]

; 80   : 	}

  00006	5d		 pop	 ebp
  00007	c3		 ret	 0
??$forward@U_Container_proxy@std@@@std@@YA$$QAU_Container_proxy@0@AAU10@@Z ENDP ; std::forward<std::_Container_proxy>
_TEXT	ENDS
PUBLIC	??$_Ptr_cat@PAPAVValue@Json@@PAPAV12@@std@@YA?AU_Scalar_ptr_iterator_tag@0@PAPAPAVValue@Json@@0@Z ; std::_Ptr_cat<Json::Value * *,Json::Value * *>
; Function compile flags: /Ogsp
; File c:\program files (x86)\microsoft visual studio 10.0\vc\include\xutility
;	COMDAT ??$_Ptr_cat@PAPAVValue@Json@@PAPAV12@@std@@YA?AU_Scalar_ptr_iterator_tag@0@PAPAPAVValue@Json@@0@Z
_TEXT	SEGMENT
__Cat$ = -1						; size = 1
___formal$ = 8						; size = 4
___formal$ = 12						; size = 4
??$_Ptr_cat@PAPAVValue@Json@@PAPAV12@@std@@YA?AU_Scalar_ptr_iterator_tag@0@PAPAPAVValue@Json@@0@Z PROC ; std::_Ptr_cat<Json::Value * *,Json::Value * *>, COMDAT

; 516  : 	{	// return pointer category from pointers

  00000	55		 push	 ebp
  00001	8b ec		 mov	 ebp, esp
  00003	51		 push	 ecx

; 517  : 	typename _Ptr_cat_helper<_Elem1, _Elem2>::_Type _Cat;
; 518  : 	return (_Cat);

  00004	8a 45 ff	 mov	 al, BYTE PTR __Cat$[ebp]

; 519  : 	}

  00007	c9		 leave
  00008	c3		 ret	 0
??$_Ptr_cat@PAPAVValue@Json@@PAPAV12@@std@@YA?AU_Scalar_ptr_iterator_tag@0@PAPAPAVValue@Json@@0@Z ENDP ; std::_Ptr_cat<Json::Value * *,Json::Value * *>
_TEXT	ENDS
PUBLIC	??$_Uninit_copy@PAPAVValue@Json@@PAPAV12@@std@@YAPAPAPAVValue@Json@@PAPAPAV12@00AAV?$allocator@PAPAVValue@Json@@@0@U_Scalar_ptr_iterator_tag@0@@Z ; std::_Uninit_copy<Json::Value * *,Json::Value * *>
; Function compile flags: /Ogsp
; File c:\program files (x86)\microsoft visual studio 10.0\vc\include\memory
;	COMDAT ??$_Uninit_copy@PAPAVValue@Json@@PAPAV12@@std@@YAPAPAPAVValue@Json@@PAPAPAV12@00AAV?$allocator@PAPAVValue@Json@@@0@U_Scalar_ptr_iterator_tag@0@@Z
_TEXT	SEGMENT
__First$ = 8						; size = 4
__Last$ = 12						; size = 4
__Dest$ = 16						; size = 4
___formal$ = 20						; size = 4
___formal$ = 24						; size = 1
??$_Uninit_copy@PAPAVValue@Json@@PAPAV12@@std@@YAPAPAPAVValue@Json@@PAPAPAV12@00AAV?$allocator@PAPAVValue@Json@@@0@U_Scalar_ptr_iterator_tag@0@@Z PROC ; std::_Uninit_copy<Json::Value * *,Json::Value * *>, COMDAT

; 399  : 	{	// copy [_First, _Last) to raw _Dest, scalar type

  00000	55		 push	 ebp
  00001	8b ec		 mov	 ebp, esp
  00003	56		 push	 esi

; 400  : 	_DEBUG_RANGE(_First, _Last);
; 401  : 	_DEBUG_POINTER(_Dest);
; 402  : 	size_t _Count = (size_t)(_Last - _First);

  00004	8b 75 0c	 mov	 esi, DWORD PTR __Last$[ebp]
  00007	2b 75 08	 sub	 esi, DWORD PTR __First$[ebp]
  0000a	c1 fe 02	 sar	 esi, 2

; 403  : 	return ((_Ty2 *)_CSTD memmove(&*_Dest, &*_First,
; 404  : 		_Count * sizeof (*_First)) + _Count);	// NB: non-overlapping move

  0000d	c1 e6 02	 shl	 esi, 2
  00010	56		 push	 esi
  00011	ff 75 08	 push	 DWORD PTR __First$[ebp]
  00014	ff 75 10	 push	 DWORD PTR __Dest$[ebp]
  00017	e8 00 00 00 00	 call	 _memmove
  0001c	83 c4 0c	 add	 esp, 12			; 0000000cH
  0001f	03 c6		 add	 eax, esi
  00021	5e		 pop	 esi

; 405  : 	}

  00022	5d		 pop	 ebp
  00023	c3		 ret	 0
??$_Uninit_copy@PAPAVValue@Json@@PAPAV12@@std@@YAPAPAPAVValue@Json@@PAPAPAV12@00AAV?$allocator@PAPAVValue@Json@@@0@U_Scalar_ptr_iterator_tag@0@@Z ENDP ; std::_Uninit_copy<Json::Value * *,Json::Value * *>
_TEXT	ENDS
PUBLIC	??$_Val_type@PAPAPAVValue@Json@@@std@@YAPAPAPAVValue@Json@@PAPAPAV12@@Z ; std::_Val_type<Json::Value * * *>
; Function compile flags: /Ogsp
; File c:\program files (x86)\microsoft visual studio 10.0\vc\include\xutility
;	COMDAT ??$_Val_type@PAPAPAVValue@Json@@@std@@YAPAPAPAVValue@Json@@PAPAPAV12@@Z
_TEXT	SEGMENT
___formal$ = 8						; size = 4
??$_Val_type@PAPAPAVValue@Json@@@std@@YAPAPAPAVValue@Json@@PAPAPAV12@@Z PROC ; std::_Val_type<Json::Value * * *>, COMDAT

; 790  : 	return (0);

  00000	33 c0		 xor	 eax, eax

; 791  : 	}

  00002	c3		 ret	 0
??$_Val_type@PAPAPAVValue@Json@@@std@@YAPAPAPAVValue@Json@@PAPAPAV12@@Z ENDP ; std::_Val_type<Json::Value * * *>
_TEXT	ENDS
PUBLIC	??$_Destroy_range@V?$allocator@PAPAVValue@Json@@@std@@@std@@YAXPAPAPAVValue@Json@@0AAV?$allocator@PAPAVValue@Json@@@0@U_Scalar_ptr_iterator_tag@0@@Z ; std::_Destroy_range<std::allocator<Json::Value * *> >
; Function compile flags: /Ogsp
; File c:\program files (x86)\microsoft visual studio 10.0\vc\include\xmemory
;	COMDAT ??$_Destroy_range@V?$allocator@PAPAVValue@Json@@@std@@@std@@YAXPAPAPAVValue@Json@@0AAV?$allocator@PAPAVValue@Json@@@0@U_Scalar_ptr_iterator_tag@0@@Z
_TEXT	SEGMENT
__First$ = 8						; size = 4
__Last$ = 12						; size = 4
__Al$ = 16						; size = 4
___formal$ = 20						; size = 1
??$_Destroy_range@V?$allocator@PAPAVValue@Json@@@std@@@std@@YAXPAPAPAVValue@Json@@0AAV?$allocator@PAPAVValue@Json@@@0@U_Scalar_ptr_iterator_tag@0@@Z PROC ; std::_Destroy_range<std::allocator<Json::Value * *> >, COMDAT

; 105  : 	}

  00000	c3		 ret	 0
??$_Destroy_range@V?$allocator@PAPAVValue@Json@@@std@@@std@@YAXPAPAPAVValue@Json@@0AAV?$allocator@PAPAVValue@Json@@@0@U_Scalar_ptr_iterator_tag@0@@Z ENDP ; std::_Destroy_range<std::allocator<Json::Value * *> >
_TEXT	ENDS
PUBLIC	??$_Destroy@PAVValue@Json@@@std@@YAXPAPAVValue@Json@@@Z ; std::_Destroy<Json::Value *>
; Function compile flags: /Ogsp
;	COMDAT ??$_Destroy@PAVValue@Json@@@std@@YAXPAPAVValue@Json@@@Z
_TEXT	SEGMENT
__Ptr$ = 8						; size = 4
??$_Destroy@PAVValue@Json@@@std@@YAXPAPAVValue@Json@@@Z PROC ; std::_Destroy<Json::Value *>, COMDAT

; 63   : 	_Ptr->~_Ty();
; 64   : 	}

  00000	c3		 ret	 0
??$_Destroy@PAVValue@Json@@@std@@YAXPAPAVValue@Json@@@Z ENDP ; std::_Destroy<Json::Value *>
_TEXT	ENDS
PUBLIC	??$_Destroy@PAPAVValue@Json@@@std@@YAXPAPAPAVValue@Json@@@Z ; std::_Destroy<Json::Value * *>
; Function compile flags: /Ogsp
;	COMDAT ??$_Destroy@PAPAVValue@Json@@@std@@YAXPAPAPAVValue@Json@@@Z
_TEXT	SEGMENT
__Ptr$ = 8						; size = 4
??$_Destroy@PAPAVValue@Json@@@std@@YAXPAPAPAVValue@Json@@@Z PROC ; std::_Destroy<Json::Value * *>, COMDAT

; 63   : 	_Ptr->~_Ty();
; 64   : 	}

  00000	c3		 ret	 0
??$_Destroy@PAPAVValue@Json@@@std@@YAXPAPAPAVValue@Json@@@Z ENDP ; std::_Destroy<Json::Value * *>
_TEXT	ENDS
PUBLIC	??$_Destroy@PAVErrorInfo@Reader@Json@@@std@@YAXPAPAVErrorInfo@Reader@Json@@@Z ; std::_Destroy<Json::Reader::ErrorInfo *>
; Function compile flags: /Ogsp
;	COMDAT ??$_Destroy@PAVErrorInfo@Reader@Json@@@std@@YAXPAPAVErrorInfo@Reader@Json@@@Z
_TEXT	SEGMENT
__Ptr$ = 8						; size = 4
??$_Destroy@PAVErrorInfo@Reader@Json@@@std@@YAXPAPAVErrorInfo@Reader@Json@@@Z PROC ; std::_Destroy<Json::Reader::ErrorInfo *>, COMDAT

; 63   : 	_Ptr->~_Ty();
; 64   : 	}

  00000	c3		 ret	 0
??$_Destroy@PAVErrorInfo@Reader@Json@@@std@@YAXPAPAVErrorInfo@Reader@Json@@@Z ENDP ; std::_Destroy<Json::Reader::ErrorInfo *>
_TEXT	ENDS
PUBLIC	??$_Destroy@U_Container_proxy@std@@@std@@YAXPAU_Container_proxy@0@@Z ; std::_Destroy<std::_Container_proxy>
; Function compile flags: /Ogsp
;	COMDAT ??$_Destroy@U_Container_proxy@std@@@std@@YAXPAU_Container_proxy@0@@Z
_TEXT	SEGMENT
__Ptr$ = 8						; size = 4
??$_Destroy@U_Container_proxy@std@@@std@@YAXPAU_Container_proxy@0@@Z PROC ; std::_Destroy<std::_Container_proxy>, COMDAT

; 63   : 	_Ptr->~_Ty();
; 64   : 	}

  00000	c3		 ret	 0
??$_Destroy@U_Container_proxy@std@@@std@@YAXPAU_Container_proxy@0@@Z ENDP ; std::_Destroy<std::_Container_proxy>
_TEXT	ENDS
PUBLIC	??D?$_Deque_iterator@VErrorInfo@Reader@Json@@V?$allocator@VErrorInfo@Reader@Json@@@std@@@std@@QBEAAVErrorInfo@Reader@Json@@XZ ; std::_Deque_iterator<Json::Reader::ErrorInfo,std::allocator<Json::Reader::ErrorInfo> >::operator*
; Function compile flags: /Ogsp
; File c:\program files (x86)\microsoft visual studio 10.0\vc\include\deque
;	COMDAT ??D?$_Deque_iterator@VErrorInfo@Reader@Json@@V?$allocator@VErrorInfo@Reader@Json@@@std@@@std@@QBEAAVErrorInfo@Reader@Json@@XZ
_TEXT	SEGMENT
??D?$_Deque_iterator@VErrorInfo@Reader@Json@@V?$allocator@VErrorInfo@Reader@Json@@@std@@@std@@QBEAAVErrorInfo@Reader@Json@@XZ PROC ; std::_Deque_iterator<Json::Reader::ErrorInfo,std::allocator<Json::Reader::ErrorInfo> >::operator*, COMDAT
; _this$ = ecx

; 619  : 		return ((reference)**(_Mybase *)this);

  00000	e9 00 00 00 00	 jmp	 ??D?$_Deque_const_iterator@VErrorInfo@Reader@Json@@V?$allocator@VErrorInfo@Reader@Json@@@std@@@std@@QBEABVErrorInfo@Reader@Json@@XZ ; std::_Deque_const_iterator<Json::Reader::ErrorInfo,std::allocator<Json::Reader::ErrorInfo> >::operator*
??D?$_Deque_iterator@VErrorInfo@Reader@Json@@V?$allocator@VErrorInfo@Reader@Json@@@std@@@std@@QBEAAVErrorInfo@Reader@Json@@XZ ENDP ; std::_Deque_iterator<Json::Reader::ErrorInfo,std::allocator<Json::Reader::ErrorInfo> >::operator*
_TEXT	ENDS
PUBLIC	??E?$_Deque_iterator@VErrorInfo@Reader@Json@@V?$allocator@VErrorInfo@Reader@Json@@@std@@@std@@QAEAAV01@XZ ; std::_Deque_iterator<Json::Reader::ErrorInfo,std::allocator<Json::Reader::ErrorInfo> >::operator++
; Function compile flags: /Ogsp
;	COMDAT ??E?$_Deque_iterator@VErrorInfo@Reader@Json@@V?$allocator@VErrorInfo@Reader@Json@@@std@@@std@@QAEAAV01@XZ
_TEXT	SEGMENT
??E?$_Deque_iterator@VErrorInfo@Reader@Json@@V?$allocator@VErrorInfo@Reader@Json@@@std@@@std@@QAEAAV01@XZ PROC ; std::_Deque_iterator<Json::Reader::ErrorInfo,std::allocator<Json::Reader::ErrorInfo> >::operator++, COMDAT
; _this$ = ecx

; 628  : 		{	// preincrement

  00000	8b c1		 mov	 eax, ecx

; 629  : 		++*(_Mybase *)this;

  00002	ff 40 08	 inc	 DWORD PTR [eax+8]

; 630  : 		return (*this);
; 631  : 		}

  00005	c3		 ret	 0
??E?$_Deque_iterator@VErrorInfo@Reader@Json@@V?$allocator@VErrorInfo@Reader@Json@@@std@@@std@@QAEAAV01@XZ ENDP ; std::_Deque_iterator<Json::Reader::ErrorInfo,std::allocator<Json::Reader::ErrorInfo> >::operator++
_TEXT	ENDS
PUBLIC	??F?$_Deque_const_iterator@VErrorInfo@Reader@Json@@V?$allocator@VErrorInfo@Reader@Json@@@std@@@std@@QAEAAV01@XZ ; std::_Deque_const_iterator<Json::Reader::ErrorInfo,std::allocator<Json::Reader::ErrorInfo> >::operator--
; Function compile flags: /Ogsp
;	COMDAT ??F?$_Deque_const_iterator@VErrorInfo@Reader@Json@@V?$allocator@VErrorInfo@Reader@Json@@@std@@@std@@QAEAAV01@XZ
_TEXT	SEGMENT
??F?$_Deque_const_iterator@VErrorInfo@Reader@Json@@V?$allocator@VErrorInfo@Reader@Json@@@std@@@std@@QAEAAV01@XZ PROC ; std::_Deque_const_iterator<Json::Reader::ErrorInfo,std::allocator<Json::Reader::ErrorInfo> >::operator--, COMDAT
; _this$ = ecx

; 393  : 		{	// predecrement

  00000	8b c1		 mov	 eax, ecx

; 394  :  #if _ITERATOR_DEBUG_LEVEL == 2
; 395  : 		_Mydeque *_Mycont = ((_Mydeque *)this->_Getcont());
; 396  : 		if (_Mycont == 0
; 397  : 			|| this->_Myoff <= _Mycont->_Myoff)
; 398  : 		{	// report error
; 399  : 		_DEBUG_ERROR("deque iterator not decrementable");
; 400  : 		_SCL_SECURE_OUT_OF_RANGE;
; 401  : 		}
; 402  : 
; 403  :  #elif _ITERATOR_DEBUG_LEVEL == 1
; 404  : 		_Mydeque *_Mycont = ((_Mydeque *)this->_Getcont());
; 405  : 		_SCL_SECURE_VALIDATE(_Mycont != 0);
; 406  : 		_SCL_SECURE_VALIDATE_RANGE(_Mycont->_Myoff < this->_Myoff);
; 407  :  #endif /* _ITERATOR_DEBUG_LEVEL */
; 408  : 
; 409  : 		--_Myoff;

  00002	ff 48 08	 dec	 DWORD PTR [eax+8]

; 410  : 		return (*this);
; 411  : 		}

  00005	c3		 ret	 0
??F?$_Deque_const_iterator@VErrorInfo@Reader@Json@@V?$allocator@VErrorInfo@Reader@Json@@@std@@@std@@QAEAAV01@XZ ENDP ; std::_Deque_const_iterator<Json::Reader::ErrorInfo,std::allocator<Json::Reader::ErrorInfo> >::operator--
_TEXT	ENDS
PUBLIC	??$move@AAVErrorInfo@Reader@Json@@@std@@YA$$QAVErrorInfo@Reader@Json@@AAV123@@Z ; std::move<Json::Reader::ErrorInfo &>
; Function compile flags: /Ogsp
; File c:\program files (x86)\microsoft visual studio 10.0\vc\include\utility
;	COMDAT ??$move@AAVErrorInfo@Reader@Json@@@std@@YA$$QAVErrorInfo@Reader@Json@@AAV123@@Z
_TEXT	SEGMENT
__Arg$ = 8						; size = 4
??$move@AAVErrorInfo@Reader@Json@@@std@@YA$$QAVErrorInfo@Reader@Json@@AAV123@@Z PROC ; std::move<Json::Reader::ErrorInfo &>, COMDAT

; 86   : 	{	// forward _Arg as movable

  00000	55		 push	 ebp
  00001	8b ec		 mov	 ebp, esp

; 87   : 	return ((typename tr1::_Remove_reference<_Ty>::_Type&&)_Arg);

  00003	8b 45 08	 mov	 eax, DWORD PTR __Arg$[ebp]

; 88   : 	}

  00006	5d		 pop	 ebp
  00007	c3		 ret	 0
??$move@AAVErrorInfo@Reader@Json@@@std@@YA$$QAVErrorInfo@Reader@Json@@AAV123@@Z ENDP ; std::move<Json::Reader::ErrorInfo &>
_TEXT	ENDS
PUBLIC	??$_Fill_n@PAPAVErrorInfo@Reader@Json@@IPAV123@@std@@YAXPAPAVErrorInfo@Reader@Json@@IABQAV123@@Z ; std::_Fill_n<Json::Reader::ErrorInfo * *,unsigned int,Json::Reader::ErrorInfo *>
; Function compile flags: /Ogsp
; File c:\program files (x86)\microsoft visual studio 10.0\vc\include\xutility
;	COMDAT ??$_Fill_n@PAPAVErrorInfo@Reader@Json@@IPAV123@@std@@YAXPAPAVErrorInfo@Reader@Json@@IABQAV123@@Z
_TEXT	SEGMENT
__Dest$ = 8						; size = 4
__Count$ = 12						; size = 4
__Val$ = 16						; size = 4
??$_Fill_n@PAPAVErrorInfo@Reader@Json@@IPAV123@@std@@YAXPAPAVErrorInfo@Reader@Json@@IABQAV123@@Z PROC ; std::_Fill_n<Json::Reader::ErrorInfo * *,unsigned int,Json::Reader::ErrorInfo *>, COMDAT

; 2723 : 	{	// copy _Val _Count times through [_Dest, ...)

  00000	55		 push	 ebp
  00001	8b ec		 mov	 ebp, esp

; 2724 : 	for (; 0 < _Count; --_Count, ++_Dest)

  00003	83 7d 0c 00	 cmp	 DWORD PTR __Count$[ebp], 0
  00007	76 16		 jbe	 SHORT $LN1@Fill_n
  00009	8b 45 08	 mov	 eax, DWORD PTR __Dest$[ebp]
$LL3@Fill_n:

; 2725 : 		*_Dest = _Val;

  0000c	8b 4d 10	 mov	 ecx, DWORD PTR __Val$[ebp]
  0000f	8b 09		 mov	 ecx, DWORD PTR [ecx]
  00011	ff 4d 0c	 dec	 DWORD PTR __Count$[ebp]
  00014	89 08		 mov	 DWORD PTR [eax], ecx
  00016	83 c0 04	 add	 eax, 4
  00019	83 7d 0c 00	 cmp	 DWORD PTR __Count$[ebp], 0
  0001d	77 ed		 ja	 SHORT $LL3@Fill_n
$LN1@Fill_n:

; 2726 : 	}

  0001f	5d		 pop	 ebp
  00020	c3		 ret	 0
??$_Fill_n@PAPAVErrorInfo@Reader@Json@@IPAV123@@std@@YAXPAPAVErrorInfo@Reader@Json@@IABQAV123@@Z ENDP ; std::_Fill_n<Json::Reader::ErrorInfo * *,unsigned int,Json::Reader::ErrorInfo *>
_TEXT	ENDS
PUBLIC	??$_Fill_n@PAPAPAVValue@Json@@IPAPAV12@@std@@YAXPAPAPAVValue@Json@@IABQAPAV12@@Z ; std::_Fill_n<Json::Value * * *,unsigned int,Json::Value * *>
; Function compile flags: /Ogsp
;	COMDAT ??$_Fill_n@PAPAPAVValue@Json@@IPAPAV12@@std@@YAXPAPAPAVValue@Json@@IABQAPAV12@@Z
_TEXT	SEGMENT
__Dest$ = 8						; size = 4
__Count$ = 12						; size = 4
__Val$ = 16						; size = 4
??$_Fill_n@PAPAPAVValue@Json@@IPAPAV12@@std@@YAXPAPAPAVValue@Json@@IABQAPAV12@@Z PROC ; std::_Fill_n<Json::Value * * *,unsigned int,Json::Value * *>, COMDAT

; 2723 : 	{	// copy _Val _Count times through [_Dest, ...)

  00000	55		 push	 ebp
  00001	8b ec		 mov	 ebp, esp

; 2724 : 	for (; 0 < _Count; --_Count, ++_Dest)

  00003	83 7d 0c 00	 cmp	 DWORD PTR __Count$[ebp], 0
  00007	76 16		 jbe	 SHORT $LN1@Fill_n@2
  00009	8b 45 08	 mov	 eax, DWORD PTR __Dest$[ebp]
$LL3@Fill_n@2:

; 2725 : 		*_Dest = _Val;

  0000c	8b 4d 10	 mov	 ecx, DWORD PTR __Val$[ebp]
  0000f	8b 09		 mov	 ecx, DWORD PTR [ecx]
  00011	ff 4d 0c	 dec	 DWORD PTR __Count$[ebp]
  00014	89 08		 mov	 DWORD PTR [eax], ecx
  00016	83 c0 04	 add	 eax, 4
  00019	83 7d 0c 00	 cmp	 DWORD PTR __Count$[ebp], 0
  0001d	77 ed		 ja	 SHORT $LL3@Fill_n@2
$LN1@Fill_n@2:

; 2726 : 	}

  0001f	5d		 pop	 ebp
  00020	c3		 ret	 0
??$_Fill_n@PAPAPAVValue@Json@@IPAPAV12@@std@@YAXPAPAPAVValue@Json@@IABQAPAV12@@Z ENDP ; std::_Fill_n<Json::Value * * *,unsigned int,Json::Value * *>
_TEXT	ENDS
PUBLIC	??$forward@VErrorInfo@Reader@Json@@@std@@YA$$QAVErrorInfo@Reader@Json@@AAV123@@Z ; std::forward<Json::Reader::ErrorInfo>
; Function compile flags: /Ogsp
; File c:\program files (x86)\microsoft visual studio 10.0\vc\include\utility
;	COMDAT ??$forward@VErrorInfo@Reader@Json@@@std@@YA$$QAVErrorInfo@Reader@Json@@AAV123@@Z
_TEXT	SEGMENT
__Arg$ = 8						; size = 4
??$forward@VErrorInfo@Reader@Json@@@std@@YA$$QAVErrorInfo@Reader@Json@@AAV123@@Z PROC ; std::forward<Json::Reader::ErrorInfo>, COMDAT

; 78   : 	{	// forward _Arg, given explicitly specified type parameter

  00000	55		 push	 ebp
  00001	8b ec		 mov	 ebp, esp

; 79   : 	return ((_Ty&&)_Arg);

  00003	8b 45 08	 mov	 eax, DWORD PTR __Arg$[ebp]

; 80   : 	}

  00006	5d		 pop	 ebp
  00007	c3		 ret	 0
??$forward@VErrorInfo@Reader@Json@@@std@@YA$$QAVErrorInfo@Reader@Json@@AAV123@@Z ENDP ; std::forward<Json::Reader::ErrorInfo>
_TEXT	ENDS
PUBLIC	??1_Container_base12@std@@QAE@XZ		; std::_Container_base12::~_Container_base12
; Function compile flags: /Ogsp
; File c:\program files (x86)\microsoft visual studio 10.0\vc\include\xutility
;	COMDAT ??1_Container_base12@std@@QAE@XZ
_TEXT	SEGMENT
??1_Container_base12@std@@QAE@XZ PROC			; std::_Container_base12::~_Container_base12, COMDAT
; _this$ = ecx

; 92   : 		_Orphan_all();
; 93   : 		}

  00000	c3		 ret	 0
??1_Container_base12@std@@QAE@XZ ENDP			; std::_Container_base12::~_Container_base12
_TEXT	ENDS
PUBLIC	??4_Iterator_base12@std@@QAEAAU01@ABU01@@Z	; std::_Iterator_base12::operator=
; Function compile flags: /Ogsp
;	COMDAT ??4_Iterator_base12@std@@QAEAAU01@ABU01@@Z
_TEXT	SEGMENT
__Right$ = 8						; size = 4
??4_Iterator_base12@std@@QAEAAU01@ABU01@@Z PROC		; std::_Iterator_base12::operator=, COMDAT
; _this$ = ecx

; 121  : 		{	// assign an iterator

  00000	55		 push	 ebp
  00001	8b ec		 mov	 ebp, esp
  00003	8b c1		 mov	 eax, ecx

; 122  : 		if (_Myproxy != _Right._Myproxy)

  00005	8b 4d 08	 mov	 ecx, DWORD PTR __Right$[ebp]
  00008	8b 11		 mov	 edx, DWORD PTR [ecx]
  0000a	39 10		 cmp	 DWORD PTR [eax], edx
  0000c	74 0a		 je	 SHORT $LN4@operator@4

; 123  : 			_Adopt(_Right._Myproxy->_Mycont);

  0000e	8b 12		 mov	 edx, DWORD PTR [edx]
  00010	85 d2		 test	 edx, edx
  00012	74 04		 je	 SHORT $LN4@operator@4
  00014	8b 0a		 mov	 ecx, DWORD PTR [edx]
  00016	89 08		 mov	 DWORD PTR [eax], ecx
$LN4@operator@4:

; 124  : 		return (*this);
; 125  : 		}

  00018	5d		 pop	 ebp
  00019	c2 04 00	 ret	 4
??4_Iterator_base12@std@@QAEAAU01@ABU01@@Z ENDP		; std::_Iterator_base12::operator=
; Function compile flags: /Ogsp
_TEXT	ENDS
;	COMDAT ??_Gruntime_error@std@@UAEPAXI@Z
_TEXT	SEGMENT
___flags$ = 8						; size = 4
??_Gruntime_error@std@@UAEPAXI@Z PROC			; std::runtime_error::`scalar deleting destructor', COMDAT
; _this$ = ecx
  00000	55		 push	 ebp
  00001	8b ec		 mov	 ebp, esp
  00003	56		 push	 esi
  00004	8b f1		 mov	 esi, ecx
  00006	e8 00 00 00 00	 call	 ??1exception@std@@UAE@XZ ; std::exception::~exception
  0000b	f6 45 08 01	 test	 BYTE PTR ___flags$[ebp], 1
  0000f	74 07		 je	 SHORT $LN1@scalar@4
  00011	56		 push	 esi
  00012	e8 00 00 00 00	 call	 ??3@YAXPAX@Z		; operator delete
  00017	59		 pop	 ecx
$LN1@scalar@4:
  00018	8b c6		 mov	 eax, esi
  0001a	5e		 pop	 esi
  0001b	5d		 pop	 ebp
  0001c	c2 04 00	 ret	 4
??_Gruntime_error@std@@UAEPAXI@Z ENDP			; std::runtime_error::`scalar deleting destructor'
_TEXT	ENDS
PUBLIC	?c_str@locale@std@@QBEPBDXZ			; std::locale::c_str
; Function compile flags: /Ogsp
; File c:\program files (x86)\microsoft visual studio 10.0\vc\include\xlocale
;	COMDAT ?c_str@locale@std@@QBEPBDXZ
_TEXT	SEGMENT
?c_str@locale@std@@QBEPBDXZ PROC			; std::locale::c_str, COMDAT
; _this$ = ecx

; 432  : 		return (_Ptr->_Name.c_str());

  00000	8b 01		 mov	 eax, DWORD PTR [ecx]
  00002	8b 48 18	 mov	 ecx, DWORD PTR [eax+24]
  00005	85 c9		 test	 ecx, ecx
  00007	74 03		 je	 SHORT $LN5@c_str@2
  00009	8b c1		 mov	 eax, ecx

; 433  : 		}

  0000b	c3		 ret	 0

; 432  : 		return (_Ptr->_Name.c_str());

$LN5@c_str@2:
  0000c	83 c0 1c	 add	 eax, 28			; 0000001cH

; 433  : 		}

  0000f	c3		 ret	 0
?c_str@locale@std@@QBEPBDXZ ENDP			; std::locale::c_str
_TEXT	ENDS
PUBLIC	??_7?$ctype@D@std@@6B@				; std::ctype<char>::`vftable'
PUBLIC	??0?$ctype@D@std@@QAE@ABV_Locinfo@1@I@Z		; std::ctype<char>::ctype<char>
PUBLIC	??_R4?$ctype@D@std@@6B@				; std::ctype<char>::`RTTI Complete Object Locator'
PUBLIC	??_R0?AV?$ctype@D@std@@@8			; std::ctype<char> `RTTI Type Descriptor'
PUBLIC	??_R3?$ctype@D@std@@8				; std::ctype<char>::`RTTI Class Hierarchy Descriptor'
PUBLIC	??_R2?$ctype@D@std@@8				; std::ctype<char>::`RTTI Base Class Array'
PUBLIC	??_R1A@?0A@EA@?$ctype@D@std@@8			; std::ctype<char>::`RTTI Base Class Descriptor at (0,-1,0,64)'
PUBLIC	?do_tolower@?$ctype@D@std@@MBEPBDPADPBD@Z	; std::ctype<char>::do_tolower
PUBLIC	?do_tolower@?$ctype@D@std@@MBEDD@Z		; std::ctype<char>::do_tolower
PUBLIC	?do_toupper@?$ctype@D@std@@MBEPBDPADPBD@Z	; std::ctype<char>::do_toupper
PUBLIC	?do_toupper@?$ctype@D@std@@MBEDD@Z		; std::ctype<char>::do_toupper
PUBLIC	?do_widen@?$ctype@D@std@@MBEPBDPBD0PAD@Z	; std::ctype<char>::do_widen
PUBLIC	?do_widen@?$ctype@D@std@@MBEDD@Z		; std::ctype<char>::do_widen
PUBLIC	?do_narrow@?$ctype@D@std@@MBEPBDPBD0DPAD@Z	; std::ctype<char>::do_narrow
PUBLIC	?do_narrow@?$ctype@D@std@@MBEDDD@Z		; std::ctype<char>::do_narrow
EXTRN	??_E?$ctype@D@std@@MAEPAXI@Z:PROC		; std::ctype<char>::`vector deleting destructor'
;	COMDAT ??_R1A@?0A@EA@?$ctype@D@std@@8
; File c:\program files (x86)\microsoft visual studio 10.0\vc\include\xlocinfo
rdata$r	SEGMENT
??_R1A@?0A@EA@?$ctype@D@std@@8 DD FLAT:??_R0?AV?$ctype@D@std@@@8 ; std::ctype<char>::`RTTI Base Class Descriptor at (0,-1,0,64)'
	DD	02H
	DD	00H
	DD	0ffffffffH
	DD	00H
	DD	040H
	DD	FLAT:??_R3?$ctype@D@std@@8
rdata$r	ENDS
;	COMDAT ??_R2?$ctype@D@std@@8
rdata$r	SEGMENT
??_R2?$ctype@D@std@@8 DD FLAT:??_R1A@?0A@EA@?$ctype@D@std@@8 ; std::ctype<char>::`RTTI Base Class Array'
	DD	FLAT:??_R1A@?0A@EA@ctype_base@std@@8
	DD	FLAT:??_R1A@?0A@EA@facet@locale@std@@8
rdata$r	ENDS
;	COMDAT ??_R3?$ctype@D@std@@8
rdata$r	SEGMENT
??_R3?$ctype@D@std@@8 DD 00H				; std::ctype<char>::`RTTI Class Hierarchy Descriptor'
	DD	00H
	DD	03H
	DD	FLAT:??_R2?$ctype@D@std@@8
rdata$r	ENDS
;	COMDAT ??_R0?AV?$ctype@D@std@@@8
_DATA	SEGMENT
??_R0?AV?$ctype@D@std@@@8 DD FLAT:??_7type_info@@6B@	; std::ctype<char> `RTTI Type Descriptor'
	DD	00H
	DB	'.?AV?$ctype@D@std@@', 00H
_DATA	ENDS
;	COMDAT ??_R4?$ctype@D@std@@6B@
rdata$r	SEGMENT
??_R4?$ctype@D@std@@6B@ DD 00H				; std::ctype<char>::`RTTI Complete Object Locator'
	DD	00H
	DD	00H
	DD	FLAT:??_R0?AV?$ctype@D@std@@@8
	DD	FLAT:??_R3?$ctype@D@std@@8
rdata$r	ENDS
;	COMDAT ??_7?$ctype@D@std@@6B@
CONST	SEGMENT
??_7?$ctype@D@std@@6B@ DD FLAT:??_R4?$ctype@D@std@@6B@	; std::ctype<char>::`vftable'
	DD	FLAT:??_E?$ctype@D@std@@MAEPAXI@Z
	DD	FLAT:?do_tolower@?$ctype@D@std@@MBEPBDPADPBD@Z
	DD	FLAT:?do_tolower@?$ctype@D@std@@MBEDD@Z
	DD	FLAT:?do_toupper@?$ctype@D@std@@MBEPBDPADPBD@Z
	DD	FLAT:?do_toupper@?$ctype@D@std@@MBEDD@Z
	DD	FLAT:?do_widen@?$ctype@D@std@@MBEPBDPBD0PAD@Z
	DD	FLAT:?do_widen@?$ctype@D@std@@MBEDD@Z
	DD	FLAT:?do_narrow@?$ctype@D@std@@MBEPBDPBD0DPAD@Z
	DD	FLAT:?do_narrow@?$ctype@D@std@@MBEDDD@Z
; Function compile flags: /Ogsp
; File c:\program files (x86)\microsoft visual studio 10.0\vc\include\xlocale
CONST	ENDS
;	COMDAT ??0?$ctype@D@std@@QAE@ABV_Locinfo@1@I@Z
_TEXT	SEGMENT
$T41538 = -16						; size = 16
__Lobj$ = 8						; size = 4
__Refs$ = 12						; size = 4
??0?$ctype@D@std@@QAE@ABV_Locinfo@1@I@Z PROC		; std::ctype<char>::ctype<char>, COMDAT
; _this$ = ecx

; 2365 : 		{	// construct from current locale

  00000	55		 push	 ebp
  00001	8b ec		 mov	 ebp, esp
  00003	8b 45 0c	 mov	 eax, DWORD PTR __Refs$[ebp]
  00006	83 ec 10	 sub	 esp, 16			; 00000010H
  00009	53		 push	 ebx
  0000a	8b d9		 mov	 ebx, ecx
  0000c	56		 push	 esi
  0000d	89 43 04	 mov	 DWORD PTR [ebx+4], eax

; 2366 : 		_Init(_Lobj);

  00010	8d 45 f0	 lea	 eax, DWORD PTR $T41538[ebp]
  00013	57		 push	 edi
  00014	50		 push	 eax
  00015	c7 03 00 00 00
	00		 mov	 DWORD PTR [ebx], OFFSET ??_7?$ctype@D@std@@6B@
  0001b	e8 00 00 00 00	 call	 __Getctype
  00020	8d 7b 08	 lea	 edi, DWORD PTR [ebx+8]
  00023	8b f0		 mov	 esi, eax
  00025	a5		 movsd
  00026	a5		 movsd
  00027	a5		 movsd
  00028	59		 pop	 ecx
  00029	a5		 movsd
  0002a	5f		 pop	 edi
  0002b	5e		 pop	 esi

; 2367 : 		}

  0002c	8b c3		 mov	 eax, ebx
  0002e	5b		 pop	 ebx
  0002f	c9		 leave
  00030	c2 08 00	 ret	 8
??0?$ctype@D@std@@QAE@ABV_Locinfo@1@I@Z ENDP		; std::ctype<char>::ctype<char>
_TEXT	ENDS
PUBLIC	?_Tidy@?$ctype@D@std@@IAEXXZ			; std::ctype<char>::_Tidy
EXTRN	??_V@YAXPAX@Z:PROC				; operator delete[]
; Function compile flags: /Ogsp
;	COMDAT ?_Tidy@?$ctype@D@std@@IAEXXZ
_TEXT	SEGMENT
?_Tidy@?$ctype@D@std@@IAEXXZ PROC			; std::ctype<char>::_Tidy, COMDAT
; _this$ = ecx

; 2405 : 		if (0 < _Ctype._Delfl)

  00000	8b 41 14	 mov	 eax, DWORD PTR [ecx+20]
  00003	85 c0		 test	 eax, eax
  00005	7e 0a		 jle	 SHORT $LN6@Tidy@2

; 2406 : 			free((void *)_Ctype._Table);

  00007	ff 71 10	 push	 DWORD PTR [ecx+16]
  0000a	e8 00 00 00 00	 call	 _free

; 2408 : 			delete[] (void *)_Ctype._Table;

  0000f	59		 pop	 ecx

; 2409 : 		}

  00010	c3		 ret	 0
$LN6@Tidy@2:

; 2407 : 		else if (_Ctype._Delfl < 0)

  00011	79 09		 jns	 SHORT $LN1@Tidy@2

; 2408 : 			delete[] (void *)_Ctype._Table;

  00013	ff 71 10	 push	 DWORD PTR [ecx+16]
  00016	e8 00 00 00 00	 call	 ??_V@YAXPAX@Z		; operator delete[]
  0001b	59		 pop	 ecx
$LN1@Tidy@2:

; 2409 : 		}

  0001c	c3		 ret	 0
?_Tidy@?$ctype@D@std@@IAEXXZ ENDP			; std::ctype<char>::_Tidy
_TEXT	ENDS
EXTRN	__Tolower:PROC
; Function compile flags: /Ogsp
;	COMDAT ?do_tolower@?$ctype@D@std@@MBEDD@Z
_TEXT	SEGMENT
__Ch$ = 8						; size = 1
?do_tolower@?$ctype@D@std@@MBEDD@Z PROC			; std::ctype<char>::do_tolower, COMDAT
; _this$ = ecx

; 2412 : 		{	// convert element to lower case

  00000	55		 push	 ebp
  00001	8b ec		 mov	 ebp, esp

; 2413 : 		return ((_Elem)_Tolower((unsigned char)_Ch, &_Ctype));

  00003	0f b6 45 08	 movzx	 eax, BYTE PTR __Ch$[ebp]
  00007	83 c1 08	 add	 ecx, 8
  0000a	51		 push	 ecx
  0000b	50		 push	 eax
  0000c	e8 00 00 00 00	 call	 __Tolower
  00011	59		 pop	 ecx
  00012	59		 pop	 ecx

; 2414 : 		}

  00013	5d		 pop	 ebp
  00014	c2 04 00	 ret	 4
?do_tolower@?$ctype@D@std@@MBEDD@Z ENDP			; std::ctype<char>::do_tolower
; Function compile flags: /Ogsp
_TEXT	ENDS
;	COMDAT ?do_tolower@?$ctype@D@std@@MBEPBDPADPBD@Z
_TEXT	SEGMENT
__First$ = 8						; size = 4
__Last$ = 12						; size = 4
?do_tolower@?$ctype@D@std@@MBEPBDPADPBD@Z PROC		; std::ctype<char>::do_tolower, COMDAT
; _this$ = ecx

; 2418 : 		{	// convert [_First, _Last) in place to lower case

  00000	55		 push	 ebp
  00001	8b ec		 mov	 ebp, esp
  00003	56		 push	 esi

; 2419 : 		_DEBUG_RANGE((const _Elem *)_First, _Last);
; 2420 : 		for (; _First != _Last; ++_First)

  00004	8b 75 08	 mov	 esi, DWORD PTR __First$[ebp]
  00007	3b 75 0c	 cmp	 esi, DWORD PTR __Last$[ebp]
  0000a	74 19		 je	 SHORT $LN1@do_tolower
  0000c	57		 push	 edi
  0000d	8d 79 08	 lea	 edi, DWORD PTR [ecx+8]
$LL3@do_tolower:

; 2421 : 			*_First = (_Elem)_Tolower((unsigned char)*_First, &_Ctype);

  00010	0f b6 06	 movzx	 eax, BYTE PTR [esi]
  00013	57		 push	 edi
  00014	50		 push	 eax
  00015	e8 00 00 00 00	 call	 __Tolower
  0001a	88 06		 mov	 BYTE PTR [esi], al
  0001c	46		 inc	 esi
  0001d	59		 pop	 ecx
  0001e	59		 pop	 ecx
  0001f	3b 75 0c	 cmp	 esi, DWORD PTR __Last$[ebp]
  00022	75 ec		 jne	 SHORT $LL3@do_tolower
  00024	5f		 pop	 edi
$LN1@do_tolower:

; 2422 : 		return ((const _Elem *)_First);

  00025	8b c6		 mov	 eax, esi
  00027	5e		 pop	 esi

; 2423 : 		}

  00028	5d		 pop	 ebp
  00029	c2 08 00	 ret	 8
?do_tolower@?$ctype@D@std@@MBEPBDPADPBD@Z ENDP		; std::ctype<char>::do_tolower
_TEXT	ENDS
EXTRN	__Toupper:PROC
; Function compile flags: /Ogsp
;	COMDAT ?do_toupper@?$ctype@D@std@@MBEDD@Z
_TEXT	SEGMENT
__Ch$ = 8						; size = 1
?do_toupper@?$ctype@D@std@@MBEDD@Z PROC			; std::ctype<char>::do_toupper, COMDAT
; _this$ = ecx

; 2426 : 		{	// convert element to upper case

  00000	55		 push	 ebp
  00001	8b ec		 mov	 ebp, esp

; 2427 : 		return ((_Elem)_Toupper((unsigned char)_Ch, &_Ctype));

  00003	0f b6 45 08	 movzx	 eax, BYTE PTR __Ch$[ebp]
  00007	83 c1 08	 add	 ecx, 8
  0000a	51		 push	 ecx
  0000b	50		 push	 eax
  0000c	e8 00 00 00 00	 call	 __Toupper
  00011	59		 pop	 ecx
  00012	59		 pop	 ecx

; 2428 : 		}

  00013	5d		 pop	 ebp
  00014	c2 04 00	 ret	 4
?do_toupper@?$ctype@D@std@@MBEDD@Z ENDP			; std::ctype<char>::do_toupper
; Function compile flags: /Ogsp
_TEXT	ENDS
;	COMDAT ?do_toupper@?$ctype@D@std@@MBEPBDPADPBD@Z
_TEXT	SEGMENT
__First$ = 8						; size = 4
__Last$ = 12						; size = 4
?do_toupper@?$ctype@D@std@@MBEPBDPADPBD@Z PROC		; std::ctype<char>::do_toupper, COMDAT
; _this$ = ecx

; 2432 : 		{	// convert [_First, _Last) in place to upper case

  00000	55		 push	 ebp
  00001	8b ec		 mov	 ebp, esp
  00003	56		 push	 esi

; 2433 : 		_DEBUG_RANGE((const _Elem *)_First, _Last);
; 2434 : 		for (; _First != _Last; ++_First)

  00004	8b 75 08	 mov	 esi, DWORD PTR __First$[ebp]
  00007	3b 75 0c	 cmp	 esi, DWORD PTR __Last$[ebp]
  0000a	74 19		 je	 SHORT $LN1@do_toupper
  0000c	57		 push	 edi
  0000d	8d 79 08	 lea	 edi, DWORD PTR [ecx+8]
$LL3@do_toupper:

; 2435 : 			*_First = (_Elem)_Toupper((unsigned char)*_First, &_Ctype);

  00010	0f b6 06	 movzx	 eax, BYTE PTR [esi]
  00013	57		 push	 edi
  00014	50		 push	 eax
  00015	e8 00 00 00 00	 call	 __Toupper
  0001a	88 06		 mov	 BYTE PTR [esi], al
  0001c	46		 inc	 esi
  0001d	59		 pop	 ecx
  0001e	59		 pop	 ecx
  0001f	3b 75 0c	 cmp	 esi, DWORD PTR __Last$[ebp]
  00022	75 ec		 jne	 SHORT $LL3@do_toupper
  00024	5f		 pop	 edi
$LN1@do_toupper:

; 2436 : 		return ((const _Elem *)_First);

  00025	8b c6		 mov	 eax, esi
  00027	5e		 pop	 esi

; 2437 : 		}

  00028	5d		 pop	 ebp
  00029	c2 08 00	 ret	 8
?do_toupper@?$ctype@D@std@@MBEPBDPADPBD@Z ENDP		; std::ctype<char>::do_toupper
; Function compile flags: /Ogsp
_TEXT	ENDS
;	COMDAT ?do_widen@?$ctype@D@std@@MBEDD@Z
_TEXT	SEGMENT
__Byte$ = 8						; size = 1
?do_widen@?$ctype@D@std@@MBEDD@Z PROC			; std::ctype<char>::do_widen, COMDAT
; _this$ = ecx

; 2440 : 		{	// widen char

  00000	55		 push	 ebp
  00001	8b ec		 mov	 ebp, esp

; 2441 : 		return (_Byte);

  00003	8a 45 08	 mov	 al, BYTE PTR __Byte$[ebp]

; 2442 : 		}

  00006	5d		 pop	 ebp
  00007	c2 04 00	 ret	 4
?do_widen@?$ctype@D@std@@MBEDD@Z ENDP			; std::ctype<char>::do_widen
; Function compile flags: /Ogsp
_TEXT	ENDS
;	COMDAT ?do_widen@?$ctype@D@std@@MBEPBDPBD0PAD@Z
_TEXT	SEGMENT
__First$ = 8						; size = 4
__Last$ = 12						; size = 4
__Dest$ = 16						; size = 4
?do_widen@?$ctype@D@std@@MBEPBDPBD0PAD@Z PROC		; std::ctype<char>::do_widen, COMDAT
; _this$ = ecx

; 2446 : 		{	// widen chars in [_First, _Last)

  00000	55		 push	 ebp
  00001	8b ec		 mov	 ebp, esp

; 2447 : 		_DEBUG_RANGE(_First, _Last);
; 2448 : 		_DEBUG_POINTER(_Dest);
; 2449 : 		_CSTD memcpy(_Dest, _First, _Last - _First);

  00003	8b 45 0c	 mov	 eax, DWORD PTR __Last$[ebp]
  00006	2b 45 08	 sub	 eax, DWORD PTR __First$[ebp]
  00009	50		 push	 eax
  0000a	ff 75 08	 push	 DWORD PTR __First$[ebp]
  0000d	ff 75 10	 push	 DWORD PTR __Dest$[ebp]
  00010	e8 00 00 00 00	 call	 _memcpy

; 2450 : 		return (_Last);

  00015	8b 45 0c	 mov	 eax, DWORD PTR __Last$[ebp]
  00018	83 c4 0c	 add	 esp, 12			; 0000000cH

; 2451 : 		}

  0001b	5d		 pop	 ebp
  0001c	c2 0c 00	 ret	 12			; 0000000cH
?do_widen@?$ctype@D@std@@MBEPBDPBD0PAD@Z ENDP		; std::ctype<char>::do_widen
; Function compile flags: /Ogsp
_TEXT	ENDS
;	COMDAT ?do_narrow@?$ctype@D@std@@MBEDDD@Z
_TEXT	SEGMENT
__Ch$ = 8						; size = 1
___formal$ = 12						; size = 1
?do_narrow@?$ctype@D@std@@MBEDDD@Z PROC			; std::ctype<char>::do_narrow, COMDAT
; _this$ = ecx

; 2454 : 		{	// narrow char

  00000	55		 push	 ebp
  00001	8b ec		 mov	 ebp, esp

; 2455 : 		return (_Ch);

  00003	8a 45 08	 mov	 al, BYTE PTR __Ch$[ebp]

; 2456 : 		}

  00006	5d		 pop	 ebp
  00007	c2 08 00	 ret	 8
?do_narrow@?$ctype@D@std@@MBEDDD@Z ENDP			; std::ctype<char>::do_narrow
; Function compile flags: /Ogsp
_TEXT	ENDS
;	COMDAT ?do_narrow@?$ctype@D@std@@MBEPBDPBD0DPAD@Z
_TEXT	SEGMENT
__First$ = 8						; size = 4
__Last$ = 12						; size = 4
___formal$ = 16						; size = 1
__Dest$ = 20						; size = 4
?do_narrow@?$ctype@D@std@@MBEPBDPBD0DPAD@Z PROC		; std::ctype<char>::do_narrow, COMDAT
; _this$ = ecx

; 2460 : 		{	// narrow elements in [_First, _Last) to chars

  00000	55		 push	 ebp
  00001	8b ec		 mov	 ebp, esp

; 2461 : 		_DEBUG_RANGE(_First, _Last);
; 2462 : 		_DEBUG_POINTER(_Dest);
; 2463 : 		_CSTD memcpy(_Dest, _First, _Last - _First);

  00003	8b 45 0c	 mov	 eax, DWORD PTR __Last$[ebp]
  00006	2b 45 08	 sub	 eax, DWORD PTR __First$[ebp]
  00009	50		 push	 eax
  0000a	ff 75 08	 push	 DWORD PTR __First$[ebp]
  0000d	ff 75 14	 push	 DWORD PTR __Dest$[ebp]
  00010	e8 00 00 00 00	 call	 _memcpy

; 2464 : 		return (_Last);

  00015	8b 45 0c	 mov	 eax, DWORD PTR __Last$[ebp]
  00018	83 c4 0c	 add	 esp, 12			; 0000000cH

; 2465 : 		}

  0001b	5d		 pop	 ebp
  0001c	c2 10 00	 ret	 16			; 00000010H
?do_narrow@?$ctype@D@std@@MBEPBDPBD0DPAD@Z ENDP		; std::ctype<char>::do_narrow
_TEXT	ENDS
PUBLIC	??1?$ctype@D@std@@MAE@XZ			; std::ctype<char>::~ctype<char>
; Function compile flags: /Ogsp
;	COMDAT ??1?$ctype@D@std@@MAE@XZ
_TEXT	SEGMENT
??1?$ctype@D@std@@MAE@XZ PROC				; std::ctype<char>::~ctype<char>, COMDAT
; _this$ = ecx

; 2394 : 		{	// destroy the object

  00000	56		 push	 esi
  00001	8b f1		 mov	 esi, ecx
  00003	c7 06 00 00 00
	00		 mov	 DWORD PTR [esi], OFFSET ??_7?$ctype@D@std@@6B@

; 2395 : 		_Tidy();

  00009	e8 00 00 00 00	 call	 ?_Tidy@?$ctype@D@std@@IAEXXZ ; std::ctype<char>::_Tidy

; 2396 : 		}

  0000e	c7 06 00 00 00
	00		 mov	 DWORD PTR [esi], OFFSET ??_7facet@locale@std@@6B@
  00014	5e		 pop	 esi
  00015	c3		 ret	 0
??1?$ctype@D@std@@MAE@XZ ENDP				; std::ctype<char>::~ctype<char>
; Function compile flags: /Ogsp
_TEXT	ENDS
;	COMDAT ??_G?$ctype@D@std@@MAEPAXI@Z
_TEXT	SEGMENT
___flags$ = 8						; size = 4
??_G?$ctype@D@std@@MAEPAXI@Z PROC			; std::ctype<char>::`scalar deleting destructor', COMDAT
; _this$ = ecx
  00000	55		 push	 ebp
  00001	8b ec		 mov	 ebp, esp
  00003	56		 push	 esi
  00004	8b f1		 mov	 esi, ecx
  00006	c7 06 00 00 00
	00		 mov	 DWORD PTR [esi], OFFSET ??_7?$ctype@D@std@@6B@
  0000c	e8 00 00 00 00	 call	 ?_Tidy@?$ctype@D@std@@IAEXXZ ; std::ctype<char>::_Tidy
  00011	f6 45 08 01	 test	 BYTE PTR ___flags$[ebp], 1
  00015	c7 06 00 00 00
	00		 mov	 DWORD PTR [esi], OFFSET ??_7facet@locale@std@@6B@
  0001b	74 07		 je	 SHORT $LN1@scalar@5
  0001d	56		 push	 esi
  0001e	e8 00 00 00 00	 call	 ??3@YAXPAX@Z		; operator delete
  00023	59		 pop	 ecx
$LN1@scalar@5:
  00024	8b c6		 mov	 eax, esi
  00026	5e		 pop	 esi
  00027	5d		 pop	 ebp
  00028	c2 04 00	 ret	 4
??_G?$ctype@D@std@@MAEPAXI@Z ENDP			; std::ctype<char>::`scalar deleting destructor'
_TEXT	ENDS
PUBLIC	??_7system_error@std@@6B@			; std::system_error::`vftable'
PUBLIC	??0system_error@std@@QAE@Verror_code@1@PBD@Z	; std::system_error::system_error
PUBLIC	??_R4system_error@std@@6B@			; std::system_error::`RTTI Complete Object Locator'
PUBLIC	??_R0?AVsystem_error@std@@@8			; std::system_error `RTTI Type Descriptor'
PUBLIC	??_R3system_error@std@@8			; std::system_error::`RTTI Class Hierarchy Descriptor'
PUBLIC	??_R2system_error@std@@8			; std::system_error::`RTTI Base Class Array'
PUBLIC	??_R1A@?0A@EA@system_error@std@@8		; std::system_error::`RTTI Base Class Descriptor at (0,-1,0,64)'
EXTRN	??_Esystem_error@std@@UAEPAXI@Z:PROC		; std::system_error::`vector deleting destructor'
;	COMDAT ??_R1A@?0A@EA@system_error@std@@8
; File c:\program files (x86)\microsoft visual studio 10.0\vc\include\system_error
rdata$r	SEGMENT
??_R1A@?0A@EA@system_error@std@@8 DD FLAT:??_R0?AVsystem_error@std@@@8 ; std::system_error::`RTTI Base Class Descriptor at (0,-1,0,64)'
	DD	02H
	DD	00H
	DD	0ffffffffH
	DD	00H
	DD	040H
	DD	FLAT:??_R3system_error@std@@8
rdata$r	ENDS
;	COMDAT ??_R2system_error@std@@8
rdata$r	SEGMENT
??_R2system_error@std@@8 DD FLAT:??_R1A@?0A@EA@system_error@std@@8 ; std::system_error::`RTTI Base Class Array'
	DD	FLAT:??_R1A@?0A@EA@runtime_error@std@@8
	DD	FLAT:??_R1A@?0A@EA@exception@std@@8
rdata$r	ENDS
;	COMDAT ??_R3system_error@std@@8
rdata$r	SEGMENT
??_R3system_error@std@@8 DD 00H				; std::system_error::`RTTI Class Hierarchy Descriptor'
	DD	00H
	DD	03H
	DD	FLAT:??_R2system_error@std@@8
rdata$r	ENDS
;	COMDAT ??_R0?AVsystem_error@std@@@8
_DATA	SEGMENT
??_R0?AVsystem_error@std@@@8 DD FLAT:??_7type_info@@6B@	; std::system_error `RTTI Type Descriptor'
	DD	00H
	DB	'.?AVsystem_error@std@@', 00H
_DATA	ENDS
;	COMDAT ??_R4system_error@std@@6B@
rdata$r	SEGMENT
??_R4system_error@std@@6B@ DD 00H			; std::system_error::`RTTI Complete Object Locator'
	DD	00H
	DD	00H
	DD	FLAT:??_R0?AVsystem_error@std@@@8
	DD	FLAT:??_R3system_error@std@@8
rdata$r	ENDS
;	COMDAT ??_7system_error@std@@6B@
CONST	SEGMENT
??_7system_error@std@@6B@ DD FLAT:??_R4system_error@std@@6B@ ; std::system_error::`vftable'
	DD	FLAT:??_Esystem_error@std@@UAEPAXI@Z
	DD	FLAT:?what@exception@std@@UBEPBDXZ
; Function compile flags: /Ogsp
CONST	ENDS
;	COMDAT ??0system_error@std@@QAE@Verror_code@1@PBD@Z
_TEXT	SEGMENT
__Errcode$ = 8						; size = 8
$T41602 = 16						; size = 4
__Message$ = 16						; size = 4
??0system_error@std@@QAE@Verror_code@1@PBD@Z PROC	; std::system_error::system_error, COMDAT
; _this$ = ecx

; 516  : 		{	// construct from error code and message string

  00000	55		 push	 ebp
  00001	8b ec		 mov	 ebp, esp
  00003	8b 45 10	 mov	 eax, DWORD PTR __Message$[ebp]
  00006	56		 push	 esi
  00007	89 45 10	 mov	 DWORD PTR $T41602[ebp], eax
  0000a	8d 45 10	 lea	 eax, DWORD PTR $T41602[ebp]
  0000d	50		 push	 eax
  0000e	8b f1		 mov	 esi, ecx
  00010	e8 00 00 00 00	 call	 ??0exception@std@@QAE@ABQBD@Z ; std::exception::exception
  00015	8b 45 08	 mov	 eax, DWORD PTR __Errcode$[ebp]
  00018	89 46 0c	 mov	 DWORD PTR [esi+12], eax
  0001b	8b 45 0c	 mov	 eax, DWORD PTR __Errcode$[ebp+4]
  0001e	89 46 10	 mov	 DWORD PTR [esi+16], eax
  00021	c7 06 00 00 00
	00		 mov	 DWORD PTR [esi], OFFSET ??_7system_error@std@@6B@

; 517  : 		_Makestr();
; 518  : 		}

  00027	8b c6		 mov	 eax, esi
  00029	5e		 pop	 esi
  0002a	5d		 pop	 ebp
  0002b	c2 0c 00	 ret	 12			; 0000000cH
??0system_error@std@@QAE@Verror_code@1@PBD@Z ENDP	; std::system_error::system_error
; Function compile flags: /Ogsp
_TEXT	ENDS
;	COMDAT ??_Gsystem_error@std@@UAEPAXI@Z
_TEXT	SEGMENT
___flags$ = 8						; size = 4
??_Gsystem_error@std@@UAEPAXI@Z PROC			; std::system_error::`scalar deleting destructor', COMDAT
; _this$ = ecx
  00000	55		 push	 ebp
  00001	8b ec		 mov	 ebp, esp
  00003	56		 push	 esi
  00004	8b f1		 mov	 esi, ecx
  00006	e8 00 00 00 00	 call	 ??1exception@std@@UAE@XZ ; std::exception::~exception
  0000b	f6 45 08 01	 test	 BYTE PTR ___flags$[ebp], 1
  0000f	74 07		 je	 SHORT $LN1@scalar@6
  00011	56		 push	 esi
  00012	e8 00 00 00 00	 call	 ??3@YAXPAX@Z		; operator delete
  00017	59		 pop	 ecx
$LN1@scalar@6:
  00018	8b c6		 mov	 eax, esi
  0001a	5e		 pop	 esi
  0001b	5d		 pop	 ebp
  0001c	c2 04 00	 ret	 4
??_Gsystem_error@std@@UAEPAXI@Z ENDP			; std::system_error::`scalar deleting destructor'
_TEXT	ENDS
PUBLIC	??_7failure@ios_base@std@@6B@			; std::ios_base::failure::`vftable'
PUBLIC	??0failure@ios_base@std@@QAE@PBDABVerror_code@2@@Z ; std::ios_base::failure::failure
PUBLIC	??_R4failure@ios_base@std@@6B@			; std::ios_base::failure::`RTTI Complete Object Locator'
PUBLIC	??_R0?AVfailure@ios_base@std@@@8		; std::ios_base::failure `RTTI Type Descriptor'
PUBLIC	??_R3failure@ios_base@std@@8			; std::ios_base::failure::`RTTI Class Hierarchy Descriptor'
PUBLIC	??_R2failure@ios_base@std@@8			; std::ios_base::failure::`RTTI Base Class Array'
PUBLIC	??_R1A@?0A@EA@failure@ios_base@std@@8		; std::ios_base::failure::`RTTI Base Class Descriptor at (0,-1,0,64)'
EXTRN	??_Efailure@ios_base@std@@UAEPAXI@Z:PROC	; std::ios_base::failure::`vector deleting destructor'
;	COMDAT ??_R1A@?0A@EA@failure@ios_base@std@@8
; File c:\program files (x86)\microsoft visual studio 10.0\vc\include\xiosbase
rdata$r	SEGMENT
??_R1A@?0A@EA@failure@ios_base@std@@8 DD FLAT:??_R0?AVfailure@ios_base@std@@@8 ; std::ios_base::failure::`RTTI Base Class Descriptor at (0,-1,0,64)'
	DD	03H
	DD	00H
	DD	0ffffffffH
	DD	00H
	DD	040H
	DD	FLAT:??_R3failure@ios_base@std@@8
rdata$r	ENDS
;	COMDAT ??_R2failure@ios_base@std@@8
rdata$r	SEGMENT
??_R2failure@ios_base@std@@8 DD FLAT:??_R1A@?0A@EA@failure@ios_base@std@@8 ; std::ios_base::failure::`RTTI Base Class Array'
	DD	FLAT:??_R1A@?0A@EA@system_error@std@@8
	DD	FLAT:??_R1A@?0A@EA@runtime_error@std@@8
	DD	FLAT:??_R1A@?0A@EA@exception@std@@8
rdata$r	ENDS
;	COMDAT ??_R3failure@ios_base@std@@8
rdata$r	SEGMENT
??_R3failure@ios_base@std@@8 DD 00H			; std::ios_base::failure::`RTTI Class Hierarchy Descriptor'
	DD	00H
	DD	04H
	DD	FLAT:??_R2failure@ios_base@std@@8
rdata$r	ENDS
;	COMDAT ??_R0?AVfailure@ios_base@std@@@8
_DATA	SEGMENT
??_R0?AVfailure@ios_base@std@@@8 DD FLAT:??_7type_info@@6B@ ; std::ios_base::failure `RTTI Type Descriptor'
	DD	00H
	DB	'.?AVfailure@ios_base@std@@', 00H
_DATA	ENDS
;	COMDAT ??_R4failure@ios_base@std@@6B@
rdata$r	SEGMENT
??_R4failure@ios_base@std@@6B@ DD 00H			; std::ios_base::failure::`RTTI Complete Object Locator'
	DD	00H
	DD	00H
	DD	FLAT:??_R0?AVfailure@ios_base@std@@@8
	DD	FLAT:??_R3failure@ios_base@std@@8
rdata$r	ENDS
;	COMDAT ??_7failure@ios_base@std@@6B@
CONST	SEGMENT
??_7failure@ios_base@std@@6B@ DD FLAT:??_R4failure@ios_base@std@@6B@ ; std::ios_base::failure::`vftable'
	DD	FLAT:??_Efailure@ios_base@std@@UAEPAXI@Z
	DD	FLAT:?what@exception@std@@UBEPBDXZ
; Function compile flags: /Ogsp
CONST	ENDS
;	COMDAT ??0failure@ios_base@std@@QAE@PBDABVerror_code@2@@Z
_TEXT	SEGMENT
__Message$ = 8						; size = 4
__Errcode$ = 12						; size = 4
??0failure@ios_base@std@@QAE@PBDABVerror_code@2@@Z PROC	; std::ios_base::failure::failure, COMDAT
; _this$ = ecx

; 237  : 			{	// construct with message

  00000	55		 push	 ebp
  00001	8b ec		 mov	 ebp, esp
  00003	8b 45 0c	 mov	 eax, DWORD PTR __Errcode$[ebp]
  00006	56		 push	 esi
  00007	ff 75 08	 push	 DWORD PTR __Message$[ebp]
  0000a	8b f1		 mov	 esi, ecx
  0000c	ff 70 04	 push	 DWORD PTR [eax+4]
  0000f	ff 30		 push	 DWORD PTR [eax]
  00011	e8 00 00 00 00	 call	 ??0system_error@std@@QAE@Verror_code@1@PBD@Z ; std::system_error::system_error
  00016	c7 06 00 00 00
	00		 mov	 DWORD PTR [esi], OFFSET ??_7failure@ios_base@std@@6B@

; 238  : 			}

  0001c	8b c6		 mov	 eax, esi
  0001e	5e		 pop	 esi
  0001f	5d		 pop	 ebp
  00020	c2 08 00	 ret	 8
??0failure@ios_base@std@@QAE@PBDABVerror_code@2@@Z ENDP	; std::ios_base::failure::failure
_TEXT	ENDS
PUBLIC	??1failure@ios_base@std@@UAE@XZ			; std::ios_base::failure::~failure
; Function compile flags: /Ogsp
;	COMDAT ??1failure@ios_base@std@@UAE@XZ
_TEXT	SEGMENT
??1failure@ios_base@std@@UAE@XZ PROC			; std::ios_base::failure::~failure, COMDAT
; _this$ = ecx
  00000	e9 00 00 00 00	 jmp	 ??1exception@std@@UAE@XZ ; std::exception::~exception
??1failure@ios_base@std@@UAE@XZ ENDP			; std::ios_base::failure::~failure
_TEXT	ENDS
PUBLIC	??_C@_0BF@OOHOMBOF@ios_base?3?3eofbit?5set?$AA@	; `string'
PUBLIC	??_C@_0BG@FMKFHCIL@ios_base?3?3failbit?5set?$AA@ ; `string'
PUBLIC	__TI4?AVfailure@ios_base@std@@
PUBLIC	??_C@_0BF@PHHKMMFD@ios_base?3?3badbit?5set?$AA@	; `string'
PUBLIC	?clear@ios_base@std@@QAEXH_N@Z			; std::ios_base::clear
PUBLIC	__CTA4?AVfailure@ios_base@std@@
PUBLIC	__CT??_R0?AVfailure@ios_base@std@@@8??0failure@ios_base@std@@QAE@ABV012@@Z20
PUBLIC	??0failure@ios_base@std@@QAE@ABV012@@Z		; std::ios_base::failure::failure
PUBLIC	__CT??_R0?AVsystem_error@std@@@8??0system_error@std@@QAE@ABV01@@Z20
PUBLIC	??0system_error@std@@QAE@ABV01@@Z		; std::system_error::system_error
PUBLIC	__CT??_R0?AVruntime_error@std@@@8??0runtime_error@std@@QAE@ABV01@@Z12
PUBLIC	??0runtime_error@std@@QAE@ABV01@@Z		; std::runtime_error::runtime_error
;	COMDAT __CT??_R0?AVruntime_error@std@@@8??0runtime_error@std@@QAE@ABV01@@Z12
; File c:\program files (x86)\microsoft visual studio 10.0\vc\include\system_error
xdata$x	SEGMENT
__CT??_R0?AVruntime_error@std@@@8??0runtime_error@std@@QAE@ABV01@@Z12 DD 00H
	DD	FLAT:??_R0?AVruntime_error@std@@@8
	DD	00H
	DD	0ffffffffH
	ORG $+4
	DD	0cH
	DD	FLAT:??0runtime_error@std@@QAE@ABV01@@Z
xdata$x	ENDS
;	COMDAT __CT??_R0?AVsystem_error@std@@@8??0system_error@std@@QAE@ABV01@@Z20
xdata$x	SEGMENT
__CT??_R0?AVsystem_error@std@@@8??0system_error@std@@QAE@ABV01@@Z20 DD 00H
	DD	FLAT:??_R0?AVsystem_error@std@@@8
	DD	00H
	DD	0ffffffffH
	ORG $+4
	DD	014H
	DD	FLAT:??0system_error@std@@QAE@ABV01@@Z
xdata$x	ENDS
;	COMDAT __CT??_R0?AVfailure@ios_base@std@@@8??0failure@ios_base@std@@QAE@ABV012@@Z20
xdata$x	SEGMENT
__CT??_R0?AVfailure@ios_base@std@@@8??0failure@ios_base@std@@QAE@ABV012@@Z20 DD 00H
	DD	FLAT:??_R0?AVfailure@ios_base@std@@@8
	DD	00H
	DD	0ffffffffH
	ORG $+4
	DD	014H
	DD	FLAT:??0failure@ios_base@std@@QAE@ABV012@@Z
xdata$x	ENDS
;	COMDAT __CTA4?AVfailure@ios_base@std@@
xdata$x	SEGMENT
__CTA4?AVfailure@ios_base@std@@ DD 04H
	DD	FLAT:__CT??_R0?AVfailure@ios_base@std@@@8??0failure@ios_base@std@@QAE@ABV012@@Z20
	DD	FLAT:__CT??_R0?AVsystem_error@std@@@8??0system_error@std@@QAE@ABV01@@Z20
	DD	FLAT:__CT??_R0?AVruntime_error@std@@@8??0runtime_error@std@@QAE@ABV01@@Z12
	DD	FLAT:__CT??_R0?AVexception@std@@@8??0exception@std@@QAE@ABV01@@Z12
xdata$x	ENDS
;	COMDAT ??_C@_0BF@OOHOMBOF@ios_base?3?3eofbit?5set?$AA@
CONST	SEGMENT
??_C@_0BF@OOHOMBOF@ios_base?3?3eofbit?5set?$AA@ DB 'ios_base::eofbit set', 00H ; `string'
CONST	ENDS
;	COMDAT ??_C@_0BG@FMKFHCIL@ios_base?3?3failbit?5set?$AA@
CONST	SEGMENT
??_C@_0BG@FMKFHCIL@ios_base?3?3failbit?5set?$AA@ DB 'ios_base::failbit se'
	DB	't', 00H					; `string'
CONST	ENDS
;	COMDAT __TI4?AVfailure@ios_base@std@@
xdata$x	SEGMENT
__TI4?AVfailure@ios_base@std@@ DD 00H
	DD	FLAT:??1failure@ios_base@std@@UAE@XZ
	DD	00H
	DD	FLAT:__CTA4?AVfailure@ios_base@std@@
xdata$x	ENDS
